
so_long:	file format Mach-O 64-bit x86-64


Disassembly of section __TEXT,__text:

0000000100004450 _display_log:
100004450: 55                          	pushq	%rbp
100004451: 48 89 e5                    	movq	%rsp, %rbp
100004454: 41 57                       	pushq	%r15
100004456: 41 56                       	pushq	%r14
100004458: 41 54                       	pushq	%r12
10000445a: 53                          	pushq	%rbx
10000445b: 48 83 ec 10                 	subq	$16, %rsp
10000445f: 49 89 d6                    	movq	%rdx, %r14
100004462: 48 89 f1                    	movq	%rsi, %rcx
100004465: 41 89 ff                    	movl	%edi, %r15d
100004468: 48 8d 55 dc                 	leaq	-36(%rbp), %rdx
10000446c: be 84 8b 00 00              	movl	$35716, %esi
100004471: 31 c0                       	xorl	%eax, %eax
100004473: ff d1                       	callq	*%rcx
100004475: 8b 45 dc                    	movl	-36(%rbp), %eax
100004478: 4c 63 e0                    	movslq	%eax, %r12
10000447b: 4c 89 e7                    	movq	%r12, %rdi
10000447e: e8 3b 64 00 00              	callq	25659 <dyld_stub_binder+0x10000a8be>
100004483: 48 89 c3                    	movq	%rax, %rbx
100004486: 44 89 ff                    	movl	%r15d, %edi
100004489: 44 89 e6                    	movl	%r12d, %esi
10000448c: 31 d2                       	xorl	%edx, %edx
10000448e: 48 89 c1                    	movq	%rax, %rcx
100004491: 31 c0                       	xorl	%eax, %eax
100004493: 41 ff d6                    	callq	*%r14
100004496: 48 8b 05 7b fb 01 00        	movq	129915(%rip), %rax
10000449d: 48 8b 30                    	movq	(%rax), %rsi
1000044a0: 48 89 df                    	movq	%rbx, %rdi
1000044a3: e8 0e 63 00 00              	callq	25358 <dyld_stub_binder+0x10000a7b6>
1000044a8: 48 89 df                    	movq	%rbx, %rdi
1000044ab: e8 0c 63 00 00              	callq	25356 <dyld_stub_binder+0x10000a7bc>
1000044b0: 48 83 c4 10                 	addq	$16, %rsp
1000044b4: 5b                          	popq	%rbx
1000044b5: 41 5c                       	popq	%r12
1000044b7: 41 5e                       	popq	%r14
1000044b9: 41 5f                       	popq	%r15
1000044bb: 5d                          	popq	%rbp
1000044bc: c3                          	retq
1000044bd: 0f 1f 00                    	nopl	(%rax)

00000001000044c0 _mlx_shaders_pixel:
1000044c0: 55                          	pushq	%rbp
1000044c1: 48 89 e5                    	movq	%rsp, %rbp
1000044c4: 41 57                       	pushq	%r15
1000044c6: 41 56                       	pushq	%r14
1000044c8: 41 55                       	pushq	%r13
1000044ca: 41 54                       	pushq	%r12
1000044cc: 53                          	pushq	%rbx
1000044cd: 48 83 ec 18                 	subq	$24, %rsp
1000044d1: 48 89 fb                    	movq	%rdi, %rbx
1000044d4: bf 31 8b 00 00              	movl	$35633, %edi
1000044d9: e8 2c 63 00 00              	callq	25388 <dyld_stub_binder+0x10000a80a>
1000044de: 89 03                       	movl	%eax, (%rbx)
1000044e0: 48 8d 3d 39 67 00 00        	leaq	26425(%rip), %rdi
1000044e7: e8 1a 64 00 00              	callq	25626 <dyld_stub_binder+0x10000a906>
1000044ec: 48 89 45 c0                 	movq	%rax, -64(%rbp)
1000044f0: 48 89 c7                    	movq	%rax, %rdi
1000044f3: e8 1a 64 00 00              	callq	25626 <dyld_stub_binder+0x10000a912>
1000044f8: 89 45 cc                    	movl	%eax, -52(%rbp)
1000044fb: 8b 3b                       	movl	(%rbx), %edi
1000044fd: 41 be 01 00 00 00           	movl	$1, %r14d
100004503: 48 8d 55 c0                 	leaq	-64(%rbp), %rdx
100004507: 48 8d 4d cc                 	leaq	-52(%rbp), %rcx
10000450b: be 01 00 00 00              	movl	$1, %esi
100004510: e8 6d 63 00 00              	callq	25453 <dyld_stub_binder+0x10000a882>
100004515: 8b 3b                       	movl	(%rbx), %edi
100004517: e8 e2 62 00 00              	callq	25314 <dyld_stub_binder+0x10000a7fe>
10000451c: 48 8b 7d c0                 	movq	-64(%rbp), %rdi
100004520: e8 97 62 00 00              	callq	25239 <dyld_stub_binder+0x10000a7bc>
100004525: 8b 3b                       	movl	(%rbx), %edi
100004527: 48 8d 55 d4                 	leaq	-44(%rbp), %rdx
10000452b: be 81 8b 00 00              	movl	$35713, %esi
100004530: e8 3b 63 00 00              	callq	25403 <dyld_stub_binder+0x10000a870>
100004535: 83 7d d4 00                 	cmpl	$0, -44(%rbp)
100004539: 0f 84 b7 00 00 00           	je	183 <_mlx_shaders_pixel+0x136>
10000453f: bf 30 8b 00 00              	movl	$35632, %edi
100004544: e8 c1 62 00 00              	callq	25281 <dyld_stub_binder+0x10000a80a>
100004549: 89 43 04                    	movl	%eax, 4(%rbx)
10000454c: 48 8d 3d 9e 67 00 00        	leaq	26526(%rip), %rdi
100004553: e8 ae 63 00 00              	callq	25518 <dyld_stub_binder+0x10000a906>
100004558: 48 89 45 c0                 	movq	%rax, -64(%rbp)
10000455c: 48 89 c7                    	movq	%rax, %rdi
10000455f: e8 ae 63 00 00              	callq	25518 <dyld_stub_binder+0x10000a912>
100004564: 89 45 cc                    	movl	%eax, -52(%rbp)
100004567: 8b 7b 04                    	movl	4(%rbx), %edi
10000456a: 41 be 01 00 00 00           	movl	$1, %r14d
100004570: 48 8d 55 c0                 	leaq	-64(%rbp), %rdx
100004574: 48 8d 4d cc                 	leaq	-52(%rbp), %rcx
100004578: be 01 00 00 00              	movl	$1, %esi
10000457d: e8 00 63 00 00              	callq	25344 <dyld_stub_binder+0x10000a882>
100004582: 8b 7b 04                    	movl	4(%rbx), %edi
100004585: e8 74 62 00 00              	callq	25204 <dyld_stub_binder+0x10000a7fe>
10000458a: 48 8b 7d c0                 	movq	-64(%rbp), %rdi
10000458e: e8 29 62 00 00              	callq	25129 <dyld_stub_binder+0x10000a7bc>
100004593: 8b 7b 04                    	movl	4(%rbx), %edi
100004596: 48 8d 55 d4                 	leaq	-44(%rbp), %rdx
10000459a: be 81 8b 00 00              	movl	$35713, %esi
10000459f: e8 cc 62 00 00              	callq	25292 <dyld_stub_binder+0x10000a870>
1000045a4: 83 7d d4 00                 	cmpl	$0, -44(%rbp)
1000045a8: 74 72                       	je	114 <_mlx_shaders_pixel+0x15c>
1000045aa: e8 55 62 00 00              	callq	25173 <dyld_stub_binder+0x10000a804>
1000045af: 89 43 08                    	movl	%eax, 8(%rbx)
1000045b2: 8b 33                       	movl	(%rbx), %esi
1000045b4: 89 c7                       	movl	%eax, %edi
1000045b6: e8 13 62 00 00              	callq	25107 <dyld_stub_binder+0x10000a7ce>
1000045bb: 8b 73 04                    	movl	4(%rbx), %esi
1000045be: 8b 7b 08                    	movl	8(%rbx), %edi
1000045c1: e8 08 62 00 00              	callq	25096 <dyld_stub_binder+0x10000a7ce>
1000045c6: 8b 7b 08                    	movl	8(%rbx), %edi
1000045c9: e8 ae 62 00 00              	callq	25262 <dyld_stub_binder+0x10000a87c>
1000045ce: 8b 7b 08                    	movl	8(%rbx), %edi
1000045d1: 48 8d 55 d4                 	leaq	-44(%rbp), %rdx
1000045d5: be 82 8b 00 00              	movl	$35714, %esi
1000045da: e8 85 62 00 00              	callq	25221 <dyld_stub_binder+0x10000a864>
1000045df: 83 7d d4 00                 	cmpl	$0, -44(%rbp)
1000045e3: 0f 84 a4 00 00 00           	je	164 <_mlx_shaders_pixel+0x1cd>
1000045e9: e8 58 62 00 00              	callq	25176 <dyld_stub_binder+0x10000a846>
1000045ee: 45 31 f6                    	xorl	%r14d, %r14d
1000045f1: e9 0c 01 00 00              	jmp	268 <_mlx_shaders_pixel+0x242>
1000045f6: 4c 8b 2d 1b fa 01 00        	movq	129563(%rip), %r13
1000045fd: 49 8b 4d 00                 	movq	(%r13), %rcx
100004601: 48 8d 3d c6 66 00 00        	leaq	26310(%rip), %rdi
100004608: be 22 00 00 00              	movl	$34, %esi
10000460d: ba 01 00 00 00              	movl	$1, %edx
100004612: e8 ab 61 00 00              	callq	25003 <dyld_stub_binder+0x10000a7c2>
100004617: 44 8b 3b                    	movl	(%rbx), %r15d
10000461a: eb 25                       	jmp	37 <_mlx_shaders_pixel+0x181>
10000461c: 4c 8b 2d f5 f9 01 00        	movq	129525(%rip), %r13
100004623: 49 8b 4d 00                 	movq	(%r13), %rcx
100004627: 48 8d 3d 3c 67 00 00        	leaq	26428(%rip), %rdi
10000462e: be 22 00 00 00              	movl	$34, %esi
100004633: ba 01 00 00 00              	movl	$1, %edx
100004638: e8 85 61 00 00              	callq	24965 <dyld_stub_binder+0x10000a7c2>
10000463d: 44 8b 7b 04                 	movl	4(%rbx), %r15d
100004641: 48 8d 55 d0                 	leaq	-48(%rbp), %rdx
100004645: 44 89 ff                    	movl	%r15d, %edi
100004648: be 84 8b 00 00              	movl	$35716, %esi
10000464d: 31 c0                       	xorl	%eax, %eax
10000464f: e8 1c 62 00 00              	callq	25116 <dyld_stub_binder+0x10000a870>
100004654: 8b 45 d0                    	movl	-48(%rbp), %eax
100004657: 4c 63 e0                    	movslq	%eax, %r12
10000465a: 4c 89 e7                    	movq	%r12, %rdi
10000465d: e8 5c 62 00 00              	callq	25180 <dyld_stub_binder+0x10000a8be>
100004662: 48 89 c3                    	movq	%rax, %rbx
100004665: 44 89 ff                    	movl	%r15d, %edi
100004668: 44 89 e6                    	movl	%r12d, %esi
10000466b: 31 d2                       	xorl	%edx, %edx
10000466d: 48 89 c1                    	movq	%rax, %rcx
100004670: 31 c0                       	xorl	%eax, %eax
100004672: e8 f3 61 00 00              	callq	25075 <dyld_stub_binder+0x10000a86a>
100004677: 49 8b 75 00                 	movq	(%r13), %rsi
10000467b: 48 89 df                    	movq	%rbx, %rdi
10000467e: e8 33 61 00 00              	callq	24883 <dyld_stub_binder+0x10000a7b6>
100004683: 48 89 df                    	movq	%rbx, %rdi
100004686: e8 31 61 00 00              	callq	24881 <dyld_stub_binder+0x10000a7bc>
10000468b: eb 75                       	jmp	117 <_mlx_shaders_pixel+0x242>
10000468d: 4c 8b 25 84 f9 01 00        	movq	129412(%rip), %r12
100004694: 49 8b 0c 24                 	movq	(%r12), %rcx
100004698: 48 8d 3d ee 66 00 00        	leaq	26350(%rip), %rdi
10000469f: be 25 00 00 00              	movl	$37, %esi
1000046a4: ba 01 00 00 00              	movl	$1, %edx
1000046a9: e8 14 61 00 00              	callq	24852 <dyld_stub_binder+0x10000a7c2>
1000046ae: 44 8b 73 08                 	movl	8(%rbx), %r14d
1000046b2: 48 8d 55 d0                 	leaq	-48(%rbp), %rdx
1000046b6: 44 89 f7                    	movl	%r14d, %edi
1000046b9: be 84 8b 00 00              	movl	$35716, %esi
1000046be: 31 c0                       	xorl	%eax, %eax
1000046c0: e8 9f 61 00 00              	callq	24991 <dyld_stub_binder+0x10000a864>
1000046c5: 8b 45 d0                    	movl	-48(%rbp), %eax
1000046c8: 4c 63 f8                    	movslq	%eax, %r15
1000046cb: 4c 89 ff                    	movq	%r15, %rdi
1000046ce: e8 eb 61 00 00              	callq	25067 <dyld_stub_binder+0x10000a8be>
1000046d3: 48 89 c3                    	movq	%rax, %rbx
1000046d6: 44 89 f7                    	movl	%r14d, %edi
1000046d9: 44 89 fe                    	movl	%r15d, %esi
1000046dc: 31 d2                       	xorl	%edx, %edx
1000046de: 48 89 c1                    	movq	%rax, %rcx
1000046e1: 31 c0                       	xorl	%eax, %eax
1000046e3: e8 76 61 00 00              	callq	24950 <dyld_stub_binder+0x10000a85e>
1000046e8: 49 8b 34 24                 	movq	(%r12), %rsi
1000046ec: 48 89 df                    	movq	%rbx, %rdi
1000046ef: e8 c2 60 00 00              	callq	24770 <dyld_stub_binder+0x10000a7b6>
1000046f4: 48 89 df                    	movq	%rbx, %rdi
1000046f7: e8 c0 60 00 00              	callq	24768 <dyld_stub_binder+0x10000a7bc>
1000046fc: 41 be 01 00 00 00           	movl	$1, %r14d
100004702: 44 89 f0                    	movl	%r14d, %eax
100004705: 48 83 c4 18                 	addq	$24, %rsp
100004709: 5b                          	popq	%rbx
10000470a: 41 5c                       	popq	%r12
10000470c: 41 5d                       	popq	%r13
10000470e: 41 5e                       	popq	%r14
100004710: 41 5f                       	popq	%r15
100004712: 5d                          	popq	%rbp
100004713: c3                          	retq
100004714: 66 2e 0f 1f 84 00 00 00 00 00       	nopw	%cs:(%rax,%rax)
10000471e: 66 90                       	nop

0000000100004720 _mlx_shaders_image:
100004720: 55                          	pushq	%rbp
100004721: 48 89 e5                    	movq	%rsp, %rbp
100004724: 41 57                       	pushq	%r15
100004726: 41 56                       	pushq	%r14
100004728: 41 55                       	pushq	%r13
10000472a: 41 54                       	pushq	%r12
10000472c: 53                          	pushq	%rbx
10000472d: 48 83 ec 18                 	subq	$24, %rsp
100004731: 48 89 fb                    	movq	%rdi, %rbx
100004734: bf 31 8b 00 00              	movl	$35633, %edi
100004739: e8 cc 60 00 00              	callq	24780 <dyld_stub_binder+0x10000a80a>
10000473e: 89 43 18                    	movl	%eax, 24(%rbx)
100004741: 48 8d 3d 6b 66 00 00        	leaq	26219(%rip), %rdi
100004748: e8 b9 61 00 00              	callq	25017 <dyld_stub_binder+0x10000a906>
10000474d: 48 89 45 c0                 	movq	%rax, -64(%rbp)
100004751: 48 89 c7                    	movq	%rax, %rdi
100004754: e8 b9 61 00 00              	callq	25017 <dyld_stub_binder+0x10000a912>
100004759: 89 45 cc                    	movl	%eax, -52(%rbp)
10000475c: 8b 7b 18                    	movl	24(%rbx), %edi
10000475f: 41 be 01 00 00 00           	movl	$1, %r14d
100004765: 48 8d 55 c0                 	leaq	-64(%rbp), %rdx
100004769: 48 8d 4d cc                 	leaq	-52(%rbp), %rcx
10000476d: be 01 00 00 00              	movl	$1, %esi
100004772: e8 0b 61 00 00              	callq	24843 <dyld_stub_binder+0x10000a882>
100004777: 8b 7b 18                    	movl	24(%rbx), %edi
10000477a: e8 7f 60 00 00              	callq	24703 <dyld_stub_binder+0x10000a7fe>
10000477f: 48 8b 7d c0                 	movq	-64(%rbp), %rdi
100004783: e8 34 60 00 00              	callq	24628 <dyld_stub_binder+0x10000a7bc>
100004788: 8b 7b 18                    	movl	24(%rbx), %edi
10000478b: 48 8d 55 d4                 	leaq	-44(%rbp), %rdx
10000478f: be 81 8b 00 00              	movl	$35713, %esi
100004794: e8 d7 60 00 00              	callq	24791 <dyld_stub_binder+0x10000a870>
100004799: 83 7d d4 00                 	cmpl	$0, -44(%rbp)
10000479d: 0f 84 b8 00 00 00           	je	184 <_mlx_shaders_image+0x13b>
1000047a3: bf 30 8b 00 00              	movl	$35632, %edi
1000047a8: e8 5d 60 00 00              	callq	24669 <dyld_stub_binder+0x10000a80a>
1000047ad: 89 43 1c                    	movl	%eax, 28(%rbx)
1000047b0: 48 8d 3d 3a 65 00 00        	leaq	25914(%rip), %rdi
1000047b7: e8 4a 61 00 00              	callq	24906 <dyld_stub_binder+0x10000a906>
1000047bc: 48 89 45 c0                 	movq	%rax, -64(%rbp)
1000047c0: 48 89 c7                    	movq	%rax, %rdi
1000047c3: e8 4a 61 00 00              	callq	24906 <dyld_stub_binder+0x10000a912>
1000047c8: 89 45 cc                    	movl	%eax, -52(%rbp)
1000047cb: 8b 7b 1c                    	movl	28(%rbx), %edi
1000047ce: 41 be 01 00 00 00           	movl	$1, %r14d
1000047d4: 48 8d 55 c0                 	leaq	-64(%rbp), %rdx
1000047d8: 48 8d 4d cc                 	leaq	-52(%rbp), %rcx
1000047dc: be 01 00 00 00              	movl	$1, %esi
1000047e1: e8 9c 60 00 00              	callq	24732 <dyld_stub_binder+0x10000a882>
1000047e6: 8b 7b 1c                    	movl	28(%rbx), %edi
1000047e9: e8 10 60 00 00              	callq	24592 <dyld_stub_binder+0x10000a7fe>
1000047ee: 48 8b 7d c0                 	movq	-64(%rbp), %rdi
1000047f2: e8 c5 5f 00 00              	callq	24517 <dyld_stub_binder+0x10000a7bc>
1000047f7: 8b 7b 1c                    	movl	28(%rbx), %edi
1000047fa: 48 8d 55 d4                 	leaq	-44(%rbp), %rdx
1000047fe: be 81 8b 00 00              	movl	$35713, %esi
100004803: e8 68 60 00 00              	callq	24680 <dyld_stub_binder+0x10000a870>
100004808: 83 7d d4 00                 	cmpl	$0, -44(%rbp)
10000480c: 74 74                       	je	116 <_mlx_shaders_image+0x162>
10000480e: e8 f1 5f 00 00              	callq	24561 <dyld_stub_binder+0x10000a804>
100004813: 89 43 20                    	movl	%eax, 32(%rbx)
100004816: 8b 73 18                    	movl	24(%rbx), %esi
100004819: 89 c7                       	movl	%eax, %edi
10000481b: e8 ae 5f 00 00              	callq	24494 <dyld_stub_binder+0x10000a7ce>
100004820: 8b 73 1c                    	movl	28(%rbx), %esi
100004823: 8b 7b 20                    	movl	32(%rbx), %edi
100004826: e8 a3 5f 00 00              	callq	24483 <dyld_stub_binder+0x10000a7ce>
10000482b: 8b 7b 20                    	movl	32(%rbx), %edi
10000482e: e8 49 60 00 00              	callq	24649 <dyld_stub_binder+0x10000a87c>
100004833: 8b 7b 20                    	movl	32(%rbx), %edi
100004836: 48 8d 55 d4                 	leaq	-44(%rbp), %rdx
10000483a: be 82 8b 00 00              	movl	$35714, %esi
10000483f: e8 20 60 00 00              	callq	24608 <dyld_stub_binder+0x10000a864>
100004844: 83 7d d4 00                 	cmpl	$0, -44(%rbp)
100004848: 0f 84 a5 00 00 00           	je	165 <_mlx_shaders_image+0x1d3>
10000484e: e8 f3 5f 00 00              	callq	24563 <dyld_stub_binder+0x10000a846>
100004853: 45 31 f6                    	xorl	%r14d, %r14d
100004856: e9 0d 01 00 00              	jmp	269 <_mlx_shaders_image+0x248>
10000485b: 4c 8b 2d b6 f7 01 00        	movq	128950(%rip), %r13
100004862: 49 8b 4d 00                 	movq	(%r13), %rcx
100004866: 48 8d 3d 62 66 00 00        	leaq	26210(%rip), %rdi
10000486d: be 22 00 00 00              	movl	$34, %esi
100004872: ba 01 00 00 00              	movl	$1, %edx
100004877: e8 46 5f 00 00              	callq	24390 <dyld_stub_binder+0x10000a7c2>
10000487c: 44 8b 7b 18                 	movl	24(%rbx), %r15d
100004880: eb 25                       	jmp	37 <_mlx_shaders_image+0x187>
100004882: 4c 8b 2d 8f f7 01 00        	movq	128911(%rip), %r13
100004889: 49 8b 4d 00                 	movq	(%r13), %rcx
10000488d: 48 8d 3d 5e 66 00 00        	leaq	26206(%rip), %rdi
100004894: be 22 00 00 00              	movl	$34, %esi
100004899: ba 01 00 00 00              	movl	$1, %edx
10000489e: e8 1f 5f 00 00              	callq	24351 <dyld_stub_binder+0x10000a7c2>
1000048a3: 44 8b 7b 1c                 	movl	28(%rbx), %r15d
1000048a7: 48 8d 55 d0                 	leaq	-48(%rbp), %rdx
1000048ab: 44 89 ff                    	movl	%r15d, %edi
1000048ae: be 84 8b 00 00              	movl	$35716, %esi
1000048b3: 31 c0                       	xorl	%eax, %eax
1000048b5: e8 b6 5f 00 00              	callq	24502 <dyld_stub_binder+0x10000a870>
1000048ba: 8b 45 d0                    	movl	-48(%rbp), %eax
1000048bd: 4c 63 e0                    	movslq	%eax, %r12
1000048c0: 4c 89 e7                    	movq	%r12, %rdi
1000048c3: e8 f6 5f 00 00              	callq	24566 <dyld_stub_binder+0x10000a8be>
1000048c8: 48 89 c3                    	movq	%rax, %rbx
1000048cb: 44 89 ff                    	movl	%r15d, %edi
1000048ce: 44 89 e6                    	movl	%r12d, %esi
1000048d1: 31 d2                       	xorl	%edx, %edx
1000048d3: 48 89 c1                    	movq	%rax, %rcx
1000048d6: 31 c0                       	xorl	%eax, %eax
1000048d8: e8 8d 5f 00 00              	callq	24461 <dyld_stub_binder+0x10000a86a>
1000048dd: 49 8b 75 00                 	movq	(%r13), %rsi
1000048e1: 48 89 df                    	movq	%rbx, %rdi
1000048e4: e8 cd 5e 00 00              	callq	24269 <dyld_stub_binder+0x10000a7b6>
1000048e9: 48 89 df                    	movq	%rbx, %rdi
1000048ec: e8 cb 5e 00 00              	callq	24267 <dyld_stub_binder+0x10000a7bc>
1000048f1: eb 75                       	jmp	117 <_mlx_shaders_image+0x248>
1000048f3: 4c 8b 25 1e f7 01 00        	movq	128798(%rip), %r12
1000048fa: 49 8b 0c 24                 	movq	(%r12), %rcx
1000048fe: 48 8d 3d 10 66 00 00        	leaq	26128(%rip), %rdi
100004905: be 25 00 00 00              	movl	$37, %esi
10000490a: ba 01 00 00 00              	movl	$1, %edx
10000490f: e8 ae 5e 00 00              	callq	24238 <dyld_stub_binder+0x10000a7c2>
100004914: 44 8b 73 20                 	movl	32(%rbx), %r14d
100004918: 48 8d 55 d0                 	leaq	-48(%rbp), %rdx
10000491c: 44 89 f7                    	movl	%r14d, %edi
10000491f: be 84 8b 00 00              	movl	$35716, %esi
100004924: 31 c0                       	xorl	%eax, %eax
100004926: e8 39 5f 00 00              	callq	24377 <dyld_stub_binder+0x10000a864>
10000492b: 8b 45 d0                    	movl	-48(%rbp), %eax
10000492e: 4c 63 f8                    	movslq	%eax, %r15
100004931: 4c 89 ff                    	movq	%r15, %rdi
100004934: e8 85 5f 00 00              	callq	24453 <dyld_stub_binder+0x10000a8be>
100004939: 48 89 c3                    	movq	%rax, %rbx
10000493c: 44 89 f7                    	movl	%r14d, %edi
10000493f: 44 89 fe                    	movl	%r15d, %esi
100004942: 31 d2                       	xorl	%edx, %edx
100004944: 48 89 c1                    	movq	%rax, %rcx
100004947: 31 c0                       	xorl	%eax, %eax
100004949: e8 10 5f 00 00              	callq	24336 <dyld_stub_binder+0x10000a85e>
10000494e: 49 8b 34 24                 	movq	(%r12), %rsi
100004952: 48 89 df                    	movq	%rbx, %rdi
100004955: e8 5c 5e 00 00              	callq	24156 <dyld_stub_binder+0x10000a7b6>
10000495a: 48 89 df                    	movq	%rbx, %rdi
10000495d: e8 5a 5e 00 00              	callq	24154 <dyld_stub_binder+0x10000a7bc>
100004962: 41 be 01 00 00 00           	movl	$1, %r14d
100004968: 44 89 f0                    	movl	%r14d, %eax
10000496b: 48 83 c4 18                 	addq	$24, %rsp
10000496f: 5b                          	popq	%rbx
100004970: 41 5c                       	popq	%r12
100004972: 41 5d                       	popq	%r13
100004974: 41 5e                       	popq	%r14
100004976: 41 5f                       	popq	%r15
100004978: 5d                          	popq	%rbp
100004979: c3                          	retq
10000497a: 66 0f 1f 44 00 00           	nopw	(%rax,%rax)

0000000100004980 _mlx_shaders_font:
100004980: 55                          	pushq	%rbp
100004981: 48 89 e5                    	movq	%rsp, %rbp
100004984: 41 57                       	pushq	%r15
100004986: 41 56                       	pushq	%r14
100004988: 41 55                       	pushq	%r13
10000498a: 41 54                       	pushq	%r12
10000498c: 53                          	pushq	%rbx
10000498d: 48 83 ec 18                 	subq	$24, %rsp
100004991: 48 89 fb                    	movq	%rdi, %rbx
100004994: bf 31 8b 00 00              	movl	$35633, %edi
100004999: e8 6c 5e 00 00              	callq	24172 <dyld_stub_binder+0x10000a80a>
10000499e: 89 43 38                    	movl	%eax, 56(%rbx)
1000049a1: 48 8d 3d 93 65 00 00        	leaq	26003(%rip), %rdi
1000049a8: e8 59 5f 00 00              	callq	24409 <dyld_stub_binder+0x10000a906>
1000049ad: 48 89 45 c0                 	movq	%rax, -64(%rbp)
1000049b1: 48 89 c7                    	movq	%rax, %rdi
1000049b4: e8 59 5f 00 00              	callq	24409 <dyld_stub_binder+0x10000a912>
1000049b9: 89 45 cc                    	movl	%eax, -52(%rbp)
1000049bc: 8b 7b 38                    	movl	56(%rbx), %edi
1000049bf: 41 be 01 00 00 00           	movl	$1, %r14d
1000049c5: 48 8d 55 c0                 	leaq	-64(%rbp), %rdx
1000049c9: 48 8d 4d cc                 	leaq	-52(%rbp), %rcx
1000049cd: be 01 00 00 00              	movl	$1, %esi
1000049d2: e8 ab 5e 00 00              	callq	24235 <dyld_stub_binder+0x10000a882>
1000049d7: 8b 7b 38                    	movl	56(%rbx), %edi
1000049da: e8 1f 5e 00 00              	callq	24095 <dyld_stub_binder+0x10000a7fe>
1000049df: 48 8b 7d c0                 	movq	-64(%rbp), %rdi
1000049e3: e8 d4 5d 00 00              	callq	24020 <dyld_stub_binder+0x10000a7bc>
1000049e8: 8b 7b 38                    	movl	56(%rbx), %edi
1000049eb: 48 8d 55 d4                 	leaq	-44(%rbp), %rdx
1000049ef: be 81 8b 00 00              	movl	$35713, %esi
1000049f4: e8 77 5e 00 00              	callq	24183 <dyld_stub_binder+0x10000a870>
1000049f9: 83 7d d4 00                 	cmpl	$0, -44(%rbp)
1000049fd: 0f 84 b8 00 00 00           	je	184 <_mlx_shaders_font+0x13b>
100004a03: bf 30 8b 00 00              	movl	$35632, %edi
100004a08: e8 fd 5d 00 00              	callq	24061 <dyld_stub_binder+0x10000a80a>
100004a0d: 89 43 3c                    	movl	%eax, 60(%rbx)
100004a10: 48 8d 3d b4 66 00 00        	leaq	26292(%rip), %rdi
100004a17: e8 ea 5e 00 00              	callq	24298 <dyld_stub_binder+0x10000a906>
100004a1c: 48 89 45 c0                 	movq	%rax, -64(%rbp)
100004a20: 48 89 c7                    	movq	%rax, %rdi
100004a23: e8 ea 5e 00 00              	callq	24298 <dyld_stub_binder+0x10000a912>
100004a28: 89 45 cc                    	movl	%eax, -52(%rbp)
100004a2b: 8b 7b 3c                    	movl	60(%rbx), %edi
100004a2e: 41 be 01 00 00 00           	movl	$1, %r14d
100004a34: 48 8d 55 c0                 	leaq	-64(%rbp), %rdx
100004a38: 48 8d 4d cc                 	leaq	-52(%rbp), %rcx
100004a3c: be 01 00 00 00              	movl	$1, %esi
100004a41: e8 3c 5e 00 00              	callq	24124 <dyld_stub_binder+0x10000a882>
100004a46: 8b 7b 3c                    	movl	60(%rbx), %edi
100004a49: e8 b0 5d 00 00              	callq	23984 <dyld_stub_binder+0x10000a7fe>
100004a4e: 48 8b 7d c0                 	movq	-64(%rbp), %rdi
100004a52: e8 65 5d 00 00              	callq	23909 <dyld_stub_binder+0x10000a7bc>
100004a57: 8b 7b 3c                    	movl	60(%rbx), %edi
100004a5a: 48 8d 55 d4                 	leaq	-44(%rbp), %rdx
100004a5e: be 81 8b 00 00              	movl	$35713, %esi
100004a63: e8 08 5e 00 00              	callq	24072 <dyld_stub_binder+0x10000a870>
100004a68: 83 7d d4 00                 	cmpl	$0, -44(%rbp)
100004a6c: 74 74                       	je	116 <_mlx_shaders_font+0x162>
100004a6e: e8 91 5d 00 00              	callq	23953 <dyld_stub_binder+0x10000a804>
100004a73: 89 43 40                    	movl	%eax, 64(%rbx)
100004a76: 8b 73 38                    	movl	56(%rbx), %esi
100004a79: 89 c7                       	movl	%eax, %edi
100004a7b: e8 4e 5d 00 00              	callq	23886 <dyld_stub_binder+0x10000a7ce>
100004a80: 8b 73 3c                    	movl	60(%rbx), %esi
100004a83: 8b 7b 40                    	movl	64(%rbx), %edi
100004a86: e8 43 5d 00 00              	callq	23875 <dyld_stub_binder+0x10000a7ce>
100004a8b: 8b 7b 40                    	movl	64(%rbx), %edi
100004a8e: e8 e9 5d 00 00              	callq	24041 <dyld_stub_binder+0x10000a87c>
100004a93: 8b 7b 40                    	movl	64(%rbx), %edi
100004a96: 48 8d 55 d4                 	leaq	-44(%rbp), %rdx
100004a9a: be 82 8b 00 00              	movl	$35714, %esi
100004a9f: e8 c0 5d 00 00              	callq	24000 <dyld_stub_binder+0x10000a864>
100004aa4: 83 7d d4 00                 	cmpl	$0, -44(%rbp)
100004aa8: 0f 84 a5 00 00 00           	je	165 <_mlx_shaders_font+0x1d3>
100004aae: e8 93 5d 00 00              	callq	23955 <dyld_stub_binder+0x10000a846>
100004ab3: 45 31 f6                    	xorl	%r14d, %r14d
100004ab6: e9 0d 01 00 00              	jmp	269 <_mlx_shaders_font+0x248>
100004abb: 4c 8b 2d 56 f5 01 00        	movq	128342(%rip), %r13
100004ac2: 49 8b 4d 00                 	movq	(%r13), %rcx
100004ac6: 48 8d 3d dc 65 00 00        	leaq	26076(%rip), %rdi
100004acd: be 21 00 00 00              	movl	$33, %esi
100004ad2: ba 01 00 00 00              	movl	$1, %edx
100004ad7: e8 e6 5c 00 00              	callq	23782 <dyld_stub_binder+0x10000a7c2>
100004adc: 44 8b 7b 38                 	movl	56(%rbx), %r15d
100004ae0: eb 25                       	jmp	37 <_mlx_shaders_font+0x187>
100004ae2: 4c 8b 2d 2f f5 01 00        	movq	128303(%rip), %r13
100004ae9: 49 8b 4d 00                 	movq	(%r13), %rcx
100004aed: 48 8d 3d 6b 66 00 00        	leaq	26219(%rip), %rdi
100004af4: be 21 00 00 00              	movl	$33, %esi
100004af9: ba 01 00 00 00              	movl	$1, %edx
100004afe: e8 bf 5c 00 00              	callq	23743 <dyld_stub_binder+0x10000a7c2>
100004b03: 44 8b 7b 3c                 	movl	60(%rbx), %r15d
100004b07: 48 8d 55 d0                 	leaq	-48(%rbp), %rdx
100004b0b: 44 89 ff                    	movl	%r15d, %edi
100004b0e: be 84 8b 00 00              	movl	$35716, %esi
100004b13: 31 c0                       	xorl	%eax, %eax
100004b15: e8 56 5d 00 00              	callq	23894 <dyld_stub_binder+0x10000a870>
100004b1a: 8b 45 d0                    	movl	-48(%rbp), %eax
100004b1d: 4c 63 e0                    	movslq	%eax, %r12
100004b20: 4c 89 e7                    	movq	%r12, %rdi
100004b23: e8 96 5d 00 00              	callq	23958 <dyld_stub_binder+0x10000a8be>
100004b28: 48 89 c3                    	movq	%rax, %rbx
100004b2b: 44 89 ff                    	movl	%r15d, %edi
100004b2e: 44 89 e6                    	movl	%r12d, %esi
100004b31: 31 d2                       	xorl	%edx, %edx
100004b33: 48 89 c1                    	movq	%rax, %rcx
100004b36: 31 c0                       	xorl	%eax, %eax
100004b38: e8 2d 5d 00 00              	callq	23853 <dyld_stub_binder+0x10000a86a>
100004b3d: 49 8b 75 00                 	movq	(%r13), %rsi
100004b41: 48 89 df                    	movq	%rbx, %rdi
100004b44: e8 6d 5c 00 00              	callq	23661 <dyld_stub_binder+0x10000a7b6>
100004b49: 48 89 df                    	movq	%rbx, %rdi
100004b4c: e8 6b 5c 00 00              	callq	23659 <dyld_stub_binder+0x10000a7bc>
100004b51: eb 75                       	jmp	117 <_mlx_shaders_font+0x248>
100004b53: 4c 8b 25 be f4 01 00        	movq	128190(%rip), %r12
100004b5a: 49 8b 0c 24                 	movq	(%r12), %rcx
100004b5e: 48 8d 3d 1c 66 00 00        	leaq	26140(%rip), %rdi
100004b65: be 24 00 00 00              	movl	$36, %esi
100004b6a: ba 01 00 00 00              	movl	$1, %edx
100004b6f: e8 4e 5c 00 00              	callq	23630 <dyld_stub_binder+0x10000a7c2>
100004b74: 44 8b 73 40                 	movl	64(%rbx), %r14d
100004b78: 48 8d 55 d0                 	leaq	-48(%rbp), %rdx
100004b7c: 44 89 f7                    	movl	%r14d, %edi
100004b7f: be 84 8b 00 00              	movl	$35716, %esi
100004b84: 31 c0                       	xorl	%eax, %eax
100004b86: e8 d9 5c 00 00              	callq	23769 <dyld_stub_binder+0x10000a864>
100004b8b: 8b 45 d0                    	movl	-48(%rbp), %eax
100004b8e: 4c 63 f8                    	movslq	%eax, %r15
100004b91: 4c 89 ff                    	movq	%r15, %rdi
100004b94: e8 25 5d 00 00              	callq	23845 <dyld_stub_binder+0x10000a8be>
100004b99: 48 89 c3                    	movq	%rax, %rbx
100004b9c: 44 89 f7                    	movl	%r14d, %edi
100004b9f: 44 89 fe                    	movl	%r15d, %esi
100004ba2: 31 d2                       	xorl	%edx, %edx
100004ba4: 48 89 c1                    	movq	%rax, %rcx
100004ba7: 31 c0                       	xorl	%eax, %eax
100004ba9: e8 b0 5c 00 00              	callq	23728 <dyld_stub_binder+0x10000a85e>
100004bae: 49 8b 34 24                 	movq	(%r12), %rsi
100004bb2: 48 89 df                    	movq	%rbx, %rdi
100004bb5: e8 fc 5b 00 00              	callq	23548 <dyld_stub_binder+0x10000a7b6>
100004bba: 48 89 df                    	movq	%rbx, %rdi
100004bbd: e8 fa 5b 00 00              	callq	23546 <dyld_stub_binder+0x10000a7bc>
100004bc2: 41 be 01 00 00 00           	movl	$1, %r14d
100004bc8: 44 89 f0                    	movl	%r14d, %eax
100004bcb: 48 83 c4 18                 	addq	$24, %rsp
100004bcf: 5b                          	popq	%rbx
100004bd0: 41 5c                       	popq	%r12
100004bd2: 41 5d                       	popq	%r13
100004bd4: 41 5e                       	popq	%r14
100004bd6: 41 5f                       	popq	%r15
100004bd8: 5d                          	popq	%rbp
100004bd9: c3                          	retq
100004bda: 66 0f 1f 44 00 00           	nopw	(%rax,%rax)

0000000100004be0 _mlx_shaders:
100004be0: 55                          	pushq	%rbp
100004be1: 48 89 e5                    	movq	%rsp, %rbp
100004be4: 41 57                       	pushq	%r15
100004be6: 41 56                       	pushq	%r14
100004be8: 53                          	pushq	%rbx
100004be9: 50                          	pushq	%rax
100004bea: 49 89 ff                    	movq	%rdi, %r15
100004bed: e8 ce f8 ff ff              	callq	-1842 <_mlx_shaders_pixel>
100004bf2: 41 89 c6                    	movl	%eax, %r14d
100004bf5: 4c 89 ff                    	movq	%r15, %rdi
100004bf8: e8 23 fb ff ff              	callq	-1245 <_mlx_shaders_image>
100004bfd: 89 c3                       	movl	%eax, %ebx
100004bff: 44 01 f3                    	addl	%r14d, %ebx
100004c02: 4c 89 ff                    	movq	%r15, %rdi
100004c05: e8 76 fd ff ff              	callq	-650 <_mlx_shaders_font>
100004c0a: 01 d8                       	addl	%ebx, %eax
100004c0c: 48 83 c4 08                 	addq	$8, %rsp
100004c10: 5b                          	popq	%rbx
100004c11: 41 5e                       	popq	%r14
100004c13: 41 5f                       	popq	%r15
100004c15: 5d                          	popq	%rbp
100004c16: c3                          	retq
100004c17: 90                          	nop
100004c18: 90                          	nop
100004c19: 90                          	nop
100004c1a: 90                          	nop
100004c1b: 90                          	nop
100004c1c: 90                          	nop
100004c1d: 90                          	nop
100004c1e: 90                          	nop
100004c1f: 90                          	nop

0000000100004c20 _get_mouse_button:
100004c20: 55                          	pushq	%rbp
100004c21: 48 89 e5                    	movq	%rsp, %rbp
100004c24: 48 83 ff 1b                 	cmpq	$27, %rdi
100004c28: 77 36                       	ja	54 <_get_mouse_button+0x40>
100004c2a: b8 46 00 00 00              	movl	$70, %eax
100004c2f: 48 0f a3 f8                 	btq	%rdi, %rax
100004c33: 72 1d                       	jb	29 <_get_mouse_button+0x32>
100004c35: b8 98 00 00 00              	movl	$152, %eax
100004c3a: 48 0f a3 f8                 	btq	%rdi, %rax
100004c3e: 72 19                       	jb	25 <_get_mouse_button+0x39>
100004c40: b8 00 00 00 0e              	movl	$234881024, %eax
100004c45: 48 0f a3 f8                 	btq	%rdi, %rax
100004c49: 73 15                       	jae	21 <_get_mouse_button+0x40>
100004c4b: b8 03 00 00 00              	movl	$3, %eax
100004c50: 5d                          	popq	%rbp
100004c51: c3                          	retq
100004c52: b8 01 00 00 00              	movl	$1, %eax
100004c57: 5d                          	popq	%rbp
100004c58: c3                          	retq
100004c59: b8 02 00 00 00              	movl	$2, %eax
100004c5e: 5d                          	popq	%rbp
100004c5f: c3                          	retq
100004c60: 31 c0                       	xorl	%eax, %eax
100004c62: 5d                          	popq	%rbp
100004c63: c3                          	retq
100004c64: 66 2e 0f 1f 84 00 00 00 00 00       	nopw	%cs:(%rax,%rax)
100004c6e: 66 90                       	nop

0000000100004c70 -[NSWindowEvent initWithContentRect:styleMask:backing:defer:]:
100004c70: 55                          	pushq	%rbp
100004c71: 48 89 e5                    	movq	%rsp, %rbp
100004c74: 48 83 ec 10                 	subq	$16, %rsp
100004c78: 48 89 7d f0                 	movq	%rdi, -16(%rbp)
100004c7c: 48 8b 05 6d 3e 02 00        	movq	147053(%rip), %rax
100004c83: 48 89 45 f8                 	movq	%rax, -8(%rbp)
100004c87: 48 8b 35 7a 3c 02 00        	movq	146554(%rip), %rsi
100004c8e: 4c 8b 5d 28                 	movq	40(%rbp), %r11
100004c92: 4c 8b 4d 20                 	movq	32(%rbp), %r9
100004c96: 4c 8b 55 10                 	movq	16(%rbp), %r10
100004c9a: 48 8b 45 18                 	movq	24(%rbp), %rax
100004c9e: 48 8d 7d f0                 	leaq	-16(%rbp), %rdi
100004ca2: 41 53                       	pushq	%r11
100004ca4: 41 51                       	pushq	%r9
100004ca6: 50                          	pushq	%rax
100004ca7: 41 52                       	pushq	%r10
100004ca9: e8 2e 5c 00 00              	callq	23598 <dyld_stub_binder+0x10000a8dc>
100004cae: 48 83 c4 20                 	addq	$32, %rsp
100004cb2: 48 85 c0                    	testq	%rax, %rax
100004cb5: 0f 84 b7 01 00 00           	je	439 <-[NSWindowEvent initWithContentRect:styleMask:backing:defer:]+0x202>
100004cbb: 4c 8d 45 10                 	leaq	16(%rbp), %r8
100004cbf: 4c 8b 0d 3a 3e 02 00        	movq	147002(%rip), %r9
100004cc6: 48 8b 0d 3b 3e 02 00        	movq	147003(%rip), %rcx
100004ccd: 4a 8d 94 08 f8 00 00 00     	leaq	248(%rax,%r9), %rdx
100004cd5: 48 81 fa f8 00 00 00        	cmpq	$248, %rdx
100004cdc: 72 37                       	jb	55 <-[NSWindowEvent initWithContentRect:styleMask:backing:defer:]+0xa5>
100004cde: 48 8d 94 08 f8 00 00 00     	leaq	248(%rax,%rcx), %rdx
100004ce6: 48 81 fa f7 00 00 00        	cmpq	$247, %rdx
100004ced: 76 26                       	jbe	38 <-[NSWindowEvent initWithContentRect:styleMask:backing:defer:]+0xa5>
100004cef: 4a 8d 14 08                 	leaq	(%rax,%r9), %rdx
100004cf3: 48 8d 34 08                 	leaq	(%rax,%rcx), %rsi
100004cf7: 48 8d bc 01 f8 00 00 00     	leaq	248(%rcx,%rax), %rdi
100004cff: 48 39 fa                    	cmpq	%rdi, %rdx
100004d02: 0f 83 7d 00 00 00           	jae	125 <-[NSWindowEvent initWithContentRect:styleMask:backing:defer:]+0x115>
100004d08: 49 8d bc 01 f8 00 00 00     	leaq	248(%r9,%rax), %rdi
100004d10: 48 39 fe                    	cmpq	%rdi, %rsi
100004d13: 73 70                       	jae	112 <-[NSWindowEvent initWithContentRect:styleMask:backing:defer:]+0x115>
100004d15: 48 8d 8c 01 f8 00 00 00     	leaq	248(%rcx,%rax), %rcx
100004d1d: 49 8d 94 01 f8 00 00 00     	leaq	248(%r9,%rax), %rdx
100004d25: 31 f6                       	xorl	%esi, %esi
100004d27: 66 0f 1f 84 00 00 00 00 00  	nopw	(%rax,%rax)
100004d30: 48 c7 04 f2 00 00 00 00     	movq	$0, (%rdx,%rsi,8)
100004d38: 48 c7 04 f1 00 00 00 00     	movq	$0, (%rcx,%rsi,8)
100004d40: 48 c7 44 f2 f8 00 00 00 00  	movq	$0, -8(%rdx,%rsi,8)
100004d49: 48 c7 44 f1 f8 00 00 00 00  	movq	$0, -8(%rcx,%rsi,8)
100004d52: 48 c7 44 f2 f0 00 00 00 00  	movq	$0, -16(%rdx,%rsi,8)
100004d5b: 48 c7 44 f1 f0 00 00 00 00  	movq	$0, -16(%rcx,%rsi,8)
100004d64: 48 c7 44 f2 e8 00 00 00 00  	movq	$0, -24(%rdx,%rsi,8)
100004d6d: 48 c7 44 f1 e8 00 00 00 00  	movq	$0, -24(%rcx,%rsi,8)
100004d76: 48 83 c6 fc                 	addq	$-4, %rsi
100004d7a: 48 83 fe e0                 	cmpq	$-32, %rsi
100004d7e: 75 b0                       	jne	-80 <-[NSWindowEvent initWithContentRect:styleMask:backing:defer:]+0xc0>
100004d80: e9 b1 00 00 00              	jmp	177 <-[NSWindowEvent initWithContentRect:styleMask:backing:defer:]+0x1c6>
100004d85: 0f 57 c0                    	xorps	%xmm0, %xmm0
100004d88: 0f 11 82 f0 00 00 00        	movups	%xmm0, 240(%rdx)
100004d8f: 0f 11 86 f0 00 00 00        	movups	%xmm0, 240(%rsi)
100004d96: 0f 11 82 e0 00 00 00        	movups	%xmm0, 224(%rdx)
100004d9d: 0f 11 86 e0 00 00 00        	movups	%xmm0, 224(%rsi)
100004da4: 0f 11 82 d0 00 00 00        	movups	%xmm0, 208(%rdx)
100004dab: 0f 11 86 d0 00 00 00        	movups	%xmm0, 208(%rsi)
100004db2: 0f 11 82 c0 00 00 00        	movups	%xmm0, 192(%rdx)
100004db9: 0f 11 86 c0 00 00 00        	movups	%xmm0, 192(%rsi)
100004dc0: 0f 11 82 b0 00 00 00        	movups	%xmm0, 176(%rdx)
100004dc7: 0f 11 86 b0 00 00 00        	movups	%xmm0, 176(%rsi)
100004dce: 0f 11 82 a0 00 00 00        	movups	%xmm0, 160(%rdx)
100004dd5: 0f 11 86 a0 00 00 00        	movups	%xmm0, 160(%rsi)
100004ddc: 0f 11 82 90 00 00 00        	movups	%xmm0, 144(%rdx)
100004de3: 0f 11 86 90 00 00 00        	movups	%xmm0, 144(%rsi)
100004dea: 0f 11 82 80 00 00 00        	movups	%xmm0, 128(%rdx)
100004df1: 0f 11 86 80 00 00 00        	movups	%xmm0, 128(%rsi)
100004df8: 0f 11 42 70                 	movups	%xmm0, 112(%rdx)
100004dfc: 0f 11 46 70                 	movups	%xmm0, 112(%rsi)
100004e00: 0f 11 42 60                 	movups	%xmm0, 96(%rdx)
100004e04: 0f 11 46 60                 	movups	%xmm0, 96(%rsi)
100004e08: 0f 11 42 50                 	movups	%xmm0, 80(%rdx)
100004e0c: 0f 11 46 50                 	movups	%xmm0, 80(%rsi)
100004e10: 0f 11 42 40                 	movups	%xmm0, 64(%rdx)
100004e14: 0f 11 46 40                 	movups	%xmm0, 64(%rsi)
100004e18: 0f 11 42 30                 	movups	%xmm0, 48(%rdx)
100004e1c: 0f 11 46 30                 	movups	%xmm0, 48(%rsi)
100004e20: 0f 11 42 20                 	movups	%xmm0, 32(%rdx)
100004e24: 0f 11 46 20                 	movups	%xmm0, 32(%rsi)
100004e28: 0f 11 42 10                 	movups	%xmm0, 16(%rdx)
100004e2c: 0f 11 46 10                 	movups	%xmm0, 16(%rsi)
100004e30: 0f 11 02                    	movups	%xmm0, (%rdx)
100004e33: 0f 11 06                    	movups	%xmm0, (%rsi)
100004e36: 48 8b 0d d3 3c 02 00        	movq	146643(%rip), %rcx
100004e3d: c7 04 08 00 00 00 00        	movl	$0, (%rax,%rcx)
100004e44: 48 8b 0d cd 3c 02 00        	movq	146637(%rip), %rcx
100004e4b: c7 04 08 00 00 00 00        	movl	$0, (%rax,%rcx)
100004e52: f2 41 0f 2c 48 10           	cvttsd2si	16(%r8), %ecx
100004e58: 48 8b 15 c1 3c 02 00        	movq	146625(%rip), %rdx
100004e5f: 89 0c 10                    	movl	%ecx, (%rax,%rdx)
100004e62: f2 41 0f 2c 48 18           	cvttsd2si	24(%r8), %ecx
100004e68: 48 8b 15 b9 3c 02 00        	movq	146617(%rip), %rdx
100004e6f: 89 0c 10                    	movl	%ecx, (%rax,%rdx)
100004e72: 48 83 c4 10                 	addq	$16, %rsp
100004e76: 5d                          	popq	%rbp
100004e77: c3                          	retq
100004e78: 0f 1f 84 00 00 00 00 00     	nopl	(%rax,%rax)

0000000100004e80 -[NSWindowEvent setEvent:andFunc:andParam:]:
100004e80: 55                          	pushq	%rbp
100004e81: 48 89 e5                    	movq	%rsp, %rbp
100004e84: 48 8b 05 75 3c 02 00        	movq	146549(%rip), %rax
100004e8b: 48 01 f8                    	addq	%rdi, %rax
100004e8e: 48 63 f2                    	movslq	%edx, %rsi
100004e91: 48 89 0c f0                 	movq	%rcx, (%rax,%rsi,8)
100004e95: 48 8b 05 6c 3c 02 00        	movq	146540(%rip), %rax
100004e9c: 48 01 f8                    	addq	%rdi, %rax
100004e9f: 4c 89 04 f0                 	movq	%r8, (%rax,%rsi,8)
100004ea3: 83 fe 20                    	cmpl	$32, %esi
100004ea6: 74 05                       	je	5 <-[NSWindowEvent setEvent:andFunc:andParam:]+0x2d>
100004ea8: 83 fa 06                    	cmpl	$6, %edx
100004eab: 75 16                       	jne	22 <-[NSWindowEvent setEvent:andFunc:andParam:]+0x43>
100004ead: 31 d2                       	xorl	%edx, %edx
100004eaf: 48 85 c9                    	testq	%rcx, %rcx
100004eb2: 0f 95 c2                    	setne	%dl
100004eb5: 48 8b 35 54 3a 02 00        	movq	146004(%rip), %rsi
100004ebc: 5d                          	popq	%rbp
100004ebd: ff 25 6d f1 01 00           	jmpq	*127341(%rip)
100004ec3: 5d                          	popq	%rbp
100004ec4: c3                          	retq
100004ec5: 66 2e 0f 1f 84 00 00 00 00 00       	nopw	%cs:(%rax,%rax)
100004ecf: 90                          	nop

0000000100004ed0 -[NSWindowEvent setKeyRepeat:]:
100004ed0: 55                          	pushq	%rbp
100004ed1: 48 89 e5                    	movq	%rsp, %rbp
100004ed4: 48 8b 05 35 3c 02 00        	movq	146485(%rip), %rax
100004edb: 89 14 07                    	movl	%edx, (%rdi,%rax)
100004ede: 5d                          	popq	%rbp
100004edf: c3                          	retq

0000000100004ee0 -[NSWindowEvent acceptsFirstResponder]:
100004ee0: 55                          	pushq	%rbp
100004ee1: 48 89 e5                    	movq	%rsp, %rbp
100004ee4: b8 01 00 00 00              	movl	$1, %eax
100004ee9: 5d                          	popq	%rbp
100004eea: c3                          	retq
100004eeb: 0f 1f 44 00 00              	nopl	(%rax,%rax)

0000000100004ef0 -[NSWindowEvent flagsChanged:]:
100004ef0: 55                          	pushq	%rbp
100004ef1: 48 89 e5                    	movq	%rsp, %rbp
100004ef4: 41 57                       	pushq	%r15
100004ef6: 41 56                       	pushq	%r14
100004ef8: 41 54                       	pushq	%r12
100004efa: 53                          	pushq	%rbx
100004efb: 49 89 fe                    	movq	%rdi, %r14
100004efe: 48 8b 35 13 3a 02 00        	movq	145939(%rip), %rsi
100004f05: 48 89 d7                    	movq	%rdx, %rdi
100004f08: ff 15 22 f1 01 00           	callq	*127266(%rip)
100004f0e: 49 89 c7                    	movq	%rax, %r15
100004f11: 4c 8b 25 00 3c 02 00        	movq	146432(%rip), %r12
100004f18: 43 8b 04 26                 	movl	(%r14,%r12), %eax
100004f1c: 89 c1                       	movl	%eax, %ecx
100004f1e: 44 31 f9                    	xorl	%r15d, %ecx
100004f21: 74 72                       	je	114 <-[NSWindowEvent flagsChanged:]+0xa5>
100004f23: bb ff 00 00 00              	movl	$255, %ebx
100004f28: 0f 1f 84 00 00 00 00 00     	nopl	(%rax,%rax)
100004f30: 8d 53 01                    	leal	1(%rbx), %edx
100004f33: 0f b6 d2                    	movzbl	%dl, %edx
100004f36: ff c3                       	incl	%ebx
100004f38: 0f a3 d1                    	btl	%edx, %ecx
100004f3b: 73 f3                       	jae	-13 <-[NSWindowEvent flagsChanged:]+0x40>
100004f3d: 44 39 f8                    	cmpl	%r15d, %eax
100004f40: 73 27                       	jae	39 <-[NSWindowEvent flagsChanged:]+0x79>
100004f42: 48 8b 0d b7 3b 02 00        	movq	146359(%rip), %rcx
100004f49: 49 8b 4c 0e 10              	movq	16(%r14,%rcx), %rcx
100004f4e: 48 85 c9                    	testq	%rcx, %rcx
100004f51: 74 16                       	je	22 <-[NSWindowEvent flagsChanged:]+0x79>
100004f53: 48 8b 05 ae 3b 02 00        	movq	146350(%rip), %rax
100004f5a: 49 8b 74 06 10              	movq	16(%r14,%rax), %rsi
100004f5f: 89 df                       	movl	%ebx, %edi
100004f61: 31 c0                       	xorl	%eax, %eax
100004f63: ff d1                       	callq	*%rcx
100004f65: 43 8b 04 26                 	movl	(%r14,%r12), %eax
100004f69: 44 39 f8                    	cmpl	%r15d, %eax
100004f6c: 76 23                       	jbe	35 <-[NSWindowEvent flagsChanged:]+0xa1>
100004f6e: 48 8b 05 8b 3b 02 00        	movq	146315(%rip), %rax
100004f75: 49 8b 4c 06 18              	movq	24(%r14,%rax), %rcx
100004f7a: 48 85 c9                    	testq	%rcx, %rcx
100004f7d: 74 12                       	je	18 <-[NSWindowEvent flagsChanged:]+0xa1>
100004f7f: 48 8b 05 82 3b 02 00        	movq	146306(%rip), %rax
100004f86: 49 8b 74 06 18              	movq	24(%r14,%rax), %rsi
100004f8b: 89 df                       	movl	%ebx, %edi
100004f8d: 31 c0                       	xorl	%eax, %eax
100004f8f: ff d1                       	callq	*%rcx
100004f91: 47 89 3c 26                 	movl	%r15d, (%r14,%r12)
100004f95: 5b                          	popq	%rbx
100004f96: 41 5c                       	popq	%r12
100004f98: 41 5e                       	popq	%r14
100004f9a: 41 5f                       	popq	%r15
100004f9c: 5d                          	popq	%rbp
100004f9d: c3                          	retq
100004f9e: 66 90                       	nop

0000000100004fa0 -[NSWindowEvent keyDown:]:
100004fa0: 55                          	pushq	%rbp
100004fa1: 48 89 e5                    	movq	%rsp, %rbp
100004fa4: 41 56                       	pushq	%r14
100004fa6: 53                          	pushq	%rbx
100004fa7: 49 89 d6                    	movq	%rdx, %r14
100004faa: 48 89 fb                    	movq	%rdi, %rbx
100004fad: 48 8b 05 5c 3b 02 00        	movq	146268(%rip), %rax
100004fb4: 83 3c 07 00                 	cmpl	$0, (%rdi,%rax)
100004fb8: 75 14                       	jne	20 <-[NSWindowEvent keyDown:]+0x2e>
100004fba: 48 8b 35 5f 39 02 00        	movq	145759(%rip), %rsi
100004fc1: 4c 89 f7                    	movq	%r14, %rdi
100004fc4: ff 15 66 f0 01 00           	callq	*127078(%rip)
100004fca: 84 c0                       	testb	%al, %al
100004fcc: 75 3e                       	jne	62 <-[NSWindowEvent keyDown:]+0x6c>
100004fce: 48 8b 05 2b 3b 02 00        	movq	146219(%rip), %rax
100004fd5: 48 8b 44 03 10              	movq	16(%rbx,%rax), %rax
100004fda: 48 85 c0                    	testq	%rax, %rax
100004fdd: 74 2d                       	je	45 <-[NSWindowEvent keyDown:]+0x6c>
100004fdf: 48 8b 35 42 39 02 00        	movq	145730(%rip), %rsi
100004fe6: 4c 89 f7                    	movq	%r14, %rdi
100004fe9: 49 89 c6                    	movq	%rax, %r14
100004fec: ff 15 3e f0 01 00           	callq	*127038(%rip)
100004ff2: 0f b7 f8                    	movzwl	%ax, %edi
100004ff5: 48 8b 05 0c 3b 02 00        	movq	146188(%rip), %rax
100004ffc: 48 8b 74 03 10              	movq	16(%rbx,%rax), %rsi
100005001: 31 c0                       	xorl	%eax, %eax
100005003: 4c 89 f1                    	movq	%r14, %rcx
100005006: 5b                          	popq	%rbx
100005007: 41 5e                       	popq	%r14
100005009: 5d                          	popq	%rbp
10000500a: ff e1                       	jmpq	*%rcx
10000500c: 5b                          	popq	%rbx
10000500d: 41 5e                       	popq	%r14
10000500f: 5d                          	popq	%rbp
100005010: c3                          	retq
100005011: 66 2e 0f 1f 84 00 00 00 00 00       	nopw	%cs:(%rax,%rax)
10000501b: 0f 1f 44 00 00              	nopl	(%rax,%rax)

0000000100005020 -[NSWindowEvent keyUp:]:
100005020: 55                          	pushq	%rbp
100005021: 48 89 e5                    	movq	%rsp, %rbp
100005024: 41 56                       	pushq	%r14
100005026: 53                          	pushq	%rbx
100005027: 48 8b 05 d2 3a 02 00        	movq	146130(%rip), %rax
10000502e: 48 8b 44 07 18              	movq	24(%rdi,%rax), %rax
100005033: 48 85 c0                    	testq	%rax, %rax
100005036: 74 30                       	je	48 <-[NSWindowEvent keyUp:]+0x48>
100005038: 48 89 fb                    	movq	%rdi, %rbx
10000503b: 48 8b 35 e6 38 02 00        	movq	145638(%rip), %rsi
100005042: 48 89 d7                    	movq	%rdx, %rdi
100005045: 49 89 c6                    	movq	%rax, %r14
100005048: ff 15 e2 ef 01 00           	callq	*126946(%rip)
10000504e: 0f b7 f8                    	movzwl	%ax, %edi
100005051: 48 8b 05 b0 3a 02 00        	movq	146096(%rip), %rax
100005058: 48 8b 74 03 18              	movq	24(%rbx,%rax), %rsi
10000505d: 31 c0                       	xorl	%eax, %eax
10000505f: 4c 89 f1                    	movq	%r14, %rcx
100005062: 5b                          	popq	%rbx
100005063: 41 5e                       	popq	%r14
100005065: 5d                          	popq	%rbp
100005066: ff e1                       	jmpq	*%rcx
100005068: 5b                          	popq	%rbx
100005069: 41 5e                       	popq	%r14
10000506b: 5d                          	popq	%rbp
10000506c: c3                          	retq
10000506d: 0f 1f 00                    	nopl	(%rax)

0000000100005070 -[NSWindowEvent mouseDown:]:
100005070: 55                          	pushq	%rbp
100005071: 48 89 e5                    	movq	%rsp, %rbp
100005074: 41 57                       	pushq	%r15
100005076: 41 56                       	pushq	%r14
100005078: 53                          	pushq	%rbx
100005079: 48 83 ec 18                 	subq	$24, %rsp
10000507d: 48 89 d3                    	movq	%rdx, %rbx
100005080: 49 89 fe                    	movq	%rdi, %r14
100005083: 48 8b 35 a6 38 02 00        	movq	145574(%rip), %rsi
10000508a: 4c 8b 3d 9f ef 01 00        	movq	126879(%rip), %r15
100005091: 48 89 d7                    	movq	%rdx, %rdi
100005094: 41 ff d7                    	callq	*%r15
100005097: f2 0f 11 45 e0              	movsd	%xmm0, -32(%rbp)
10000509c: f2 0f 11 4d d8              	movsd	%xmm1, -40(%rbp)
1000050a1: 48 8b 35 90 38 02 00        	movq	145552(%rip), %rsi
1000050a8: 48 89 df                    	movq	%rbx, %rdi
1000050ab: 41 ff d7                    	callq	*%r15
1000050ae: 48 83 f8 1b                 	cmpq	$27, %rax
1000050b2: 77 36                       	ja	54 <-[NSWindowEvent mouseDown:]+0x7a>
1000050b4: b9 46 00 00 00              	movl	$70, %ecx
1000050b9: 48 0f a3 c1                 	btq	%rax, %rcx
1000050bd: 72 1d                       	jb	29 <-[NSWindowEvent mouseDown:]+0x6c>
1000050bf: b9 98 00 00 00              	movl	$152, %ecx
1000050c4: 48 0f a3 c1                 	btq	%rax, %rcx
1000050c8: 72 19                       	jb	25 <-[NSWindowEvent mouseDown:]+0x73>
1000050ca: b9 00 00 00 0e              	movl	$234881024, %ecx
1000050cf: 48 0f a3 c1                 	btq	%rax, %rcx
1000050d3: 73 15                       	jae	21 <-[NSWindowEvent mouseDown:]+0x7a>
1000050d5: bf 03 00 00 00              	movl	$3, %edi
1000050da: eb 10                       	jmp	16 <-[NSWindowEvent mouseDown:]+0x7c>
1000050dc: bf 01 00 00 00              	movl	$1, %edi
1000050e1: eb 09                       	jmp	9 <-[NSWindowEvent mouseDown:]+0x7c>
1000050e3: bf 02 00 00 00              	movl	$2, %edi
1000050e8: eb 02                       	jmp	2 <-[NSWindowEvent mouseDown:]+0x7c>
1000050ea: 31 ff                       	xorl	%edi, %edi
1000050ec: 48 8b 05 0d 3a 02 00        	movq	145933(%rip), %rax
1000050f3: 4d 8b 44 06 20              	movq	32(%r14,%rax), %r8
1000050f8: 4d 85 c0                    	testq	%r8, %r8
1000050fb: 74 32                       	je	50 <-[NSWindowEvent mouseDown:]+0xbf>
1000050fd: f2 0f 2c 75 e0              	cvttsd2si	-32(%rbp), %esi
100005102: f2 0f 2c 55 d8              	cvttsd2si	-40(%rbp), %edx
100005107: 48 8b 05 1a 3a 02 00        	movq	145946(%rip), %rax
10000510e: f7 d2                       	notl	%edx
100005110: 41 03 14 06                 	addl	(%r14,%rax), %edx
100005114: 48 8b 05 ed 39 02 00        	movq	145901(%rip), %rax
10000511b: 49 8b 4c 06 20              	movq	32(%r14,%rax), %rcx
100005120: 31 c0                       	xorl	%eax, %eax
100005122: 48 83 c4 18                 	addq	$24, %rsp
100005126: 5b                          	popq	%rbx
100005127: 41 5e                       	popq	%r14
100005129: 41 5f                       	popq	%r15
10000512b: 5d                          	popq	%rbp
10000512c: 41 ff e0                    	jmpq	*%r8
10000512f: 48 83 c4 18                 	addq	$24, %rsp
100005133: 5b                          	popq	%rbx
100005134: 41 5e                       	popq	%r14
100005136: 41 5f                       	popq	%r15
100005138: 5d                          	popq	%rbp
100005139: c3                          	retq
10000513a: 66 0f 1f 44 00 00           	nopw	(%rax,%rax)

0000000100005140 -[NSWindowEvent rightMouseDown:]:
100005140: 55                          	pushq	%rbp
100005141: 48 89 e5                    	movq	%rsp, %rbp
100005144: 41 57                       	pushq	%r15
100005146: 41 56                       	pushq	%r14
100005148: 53                          	pushq	%rbx
100005149: 48 83 ec 18                 	subq	$24, %rsp
10000514d: 48 89 d3                    	movq	%rdx, %rbx
100005150: 49 89 fe                    	movq	%rdi, %r14
100005153: 48 8b 35 d6 37 02 00        	movq	145366(%rip), %rsi
10000515a: 4c 8b 3d cf ee 01 00        	movq	126671(%rip), %r15
100005161: 48 89 d7                    	movq	%rdx, %rdi
100005164: 41 ff d7                    	callq	*%r15
100005167: f2 0f 11 45 e0              	movsd	%xmm0, -32(%rbp)
10000516c: f2 0f 11 4d d8              	movsd	%xmm1, -40(%rbp)
100005171: 48 8b 35 c0 37 02 00        	movq	145344(%rip), %rsi
100005178: 48 89 df                    	movq	%rbx, %rdi
10000517b: 41 ff d7                    	callq	*%r15
10000517e: 48 83 f8 1b                 	cmpq	$27, %rax
100005182: 77 36                       	ja	54 <-[NSWindowEvent rightMouseDown:]+0x7a>
100005184: b9 46 00 00 00              	movl	$70, %ecx
100005189: 48 0f a3 c1                 	btq	%rax, %rcx
10000518d: 72 1d                       	jb	29 <-[NSWindowEvent rightMouseDown:]+0x6c>
10000518f: b9 98 00 00 00              	movl	$152, %ecx
100005194: 48 0f a3 c1                 	btq	%rax, %rcx
100005198: 72 19                       	jb	25 <-[NSWindowEvent rightMouseDown:]+0x73>
10000519a: b9 00 00 00 0e              	movl	$234881024, %ecx
10000519f: 48 0f a3 c1                 	btq	%rax, %rcx
1000051a3: 73 15                       	jae	21 <-[NSWindowEvent rightMouseDown:]+0x7a>
1000051a5: bf 03 00 00 00              	movl	$3, %edi
1000051aa: eb 10                       	jmp	16 <-[NSWindowEvent rightMouseDown:]+0x7c>
1000051ac: bf 01 00 00 00              	movl	$1, %edi
1000051b1: eb 09                       	jmp	9 <-[NSWindowEvent rightMouseDown:]+0x7c>
1000051b3: bf 02 00 00 00              	movl	$2, %edi
1000051b8: eb 02                       	jmp	2 <-[NSWindowEvent rightMouseDown:]+0x7c>
1000051ba: 31 ff                       	xorl	%edi, %edi
1000051bc: 48 8b 05 3d 39 02 00        	movq	145725(%rip), %rax
1000051c3: 4d 8b 44 06 20              	movq	32(%r14,%rax), %r8
1000051c8: 4d 85 c0                    	testq	%r8, %r8
1000051cb: 74 32                       	je	50 <-[NSWindowEvent rightMouseDown:]+0xbf>
1000051cd: f2 0f 2c 75 e0              	cvttsd2si	-32(%rbp), %esi
1000051d2: f2 0f 2c 55 d8              	cvttsd2si	-40(%rbp), %edx
1000051d7: 48 8b 05 4a 39 02 00        	movq	145738(%rip), %rax
1000051de: f7 d2                       	notl	%edx
1000051e0: 41 03 14 06                 	addl	(%r14,%rax), %edx
1000051e4: 48 8b 05 1d 39 02 00        	movq	145693(%rip), %rax
1000051eb: 49 8b 4c 06 20              	movq	32(%r14,%rax), %rcx
1000051f0: 31 c0                       	xorl	%eax, %eax
1000051f2: 48 83 c4 18                 	addq	$24, %rsp
1000051f6: 5b                          	popq	%rbx
1000051f7: 41 5e                       	popq	%r14
1000051f9: 41 5f                       	popq	%r15
1000051fb: 5d                          	popq	%rbp
1000051fc: 41 ff e0                    	jmpq	*%r8
1000051ff: 48 83 c4 18                 	addq	$24, %rsp
100005203: 5b                          	popq	%rbx
100005204: 41 5e                       	popq	%r14
100005206: 41 5f                       	popq	%r15
100005208: 5d                          	popq	%rbp
100005209: c3                          	retq
10000520a: 66 0f 1f 44 00 00           	nopw	(%rax,%rax)

0000000100005210 -[NSWindowEvent otherMouseDown:]:
100005210: 55                          	pushq	%rbp
100005211: 48 89 e5                    	movq	%rsp, %rbp
100005214: 41 57                       	pushq	%r15
100005216: 41 56                       	pushq	%r14
100005218: 53                          	pushq	%rbx
100005219: 48 83 ec 18                 	subq	$24, %rsp
10000521d: 48 89 d3                    	movq	%rdx, %rbx
100005220: 49 89 fe                    	movq	%rdi, %r14
100005223: 48 8b 35 06 37 02 00        	movq	145158(%rip), %rsi
10000522a: 4c 8b 3d ff ed 01 00        	movq	126463(%rip), %r15
100005231: 48 89 d7                    	movq	%rdx, %rdi
100005234: 41 ff d7                    	callq	*%r15
100005237: f2 0f 11 45 e0              	movsd	%xmm0, -32(%rbp)
10000523c: f2 0f 11 4d d8              	movsd	%xmm1, -40(%rbp)
100005241: 48 8b 35 f0 36 02 00        	movq	145136(%rip), %rsi
100005248: 48 89 df                    	movq	%rbx, %rdi
10000524b: 41 ff d7                    	callq	*%r15
10000524e: 48 83 f8 1b                 	cmpq	$27, %rax
100005252: 77 36                       	ja	54 <-[NSWindowEvent otherMouseDown:]+0x7a>
100005254: b9 46 00 00 00              	movl	$70, %ecx
100005259: 48 0f a3 c1                 	btq	%rax, %rcx
10000525d: 72 1d                       	jb	29 <-[NSWindowEvent otherMouseDown:]+0x6c>
10000525f: b9 98 00 00 00              	movl	$152, %ecx
100005264: 48 0f a3 c1                 	btq	%rax, %rcx
100005268: 72 19                       	jb	25 <-[NSWindowEvent otherMouseDown:]+0x73>
10000526a: b9 00 00 00 0e              	movl	$234881024, %ecx
10000526f: 48 0f a3 c1                 	btq	%rax, %rcx
100005273: 73 15                       	jae	21 <-[NSWindowEvent otherMouseDown:]+0x7a>
100005275: bf 03 00 00 00              	movl	$3, %edi
10000527a: eb 10                       	jmp	16 <-[NSWindowEvent otherMouseDown:]+0x7c>
10000527c: bf 01 00 00 00              	movl	$1, %edi
100005281: eb 09                       	jmp	9 <-[NSWindowEvent otherMouseDown:]+0x7c>
100005283: bf 02 00 00 00              	movl	$2, %edi
100005288: eb 02                       	jmp	2 <-[NSWindowEvent otherMouseDown:]+0x7c>
10000528a: 31 ff                       	xorl	%edi, %edi
10000528c: 48 8b 05 6d 38 02 00        	movq	145517(%rip), %rax
100005293: 4d 8b 44 06 20              	movq	32(%r14,%rax), %r8
100005298: 4d 85 c0                    	testq	%r8, %r8
10000529b: 74 32                       	je	50 <-[NSWindowEvent otherMouseDown:]+0xbf>
10000529d: f2 0f 2c 75 e0              	cvttsd2si	-32(%rbp), %esi
1000052a2: f2 0f 2c 55 d8              	cvttsd2si	-40(%rbp), %edx
1000052a7: 48 8b 05 7a 38 02 00        	movq	145530(%rip), %rax
1000052ae: f7 d2                       	notl	%edx
1000052b0: 41 03 14 06                 	addl	(%r14,%rax), %edx
1000052b4: 48 8b 05 4d 38 02 00        	movq	145485(%rip), %rax
1000052bb: 49 8b 4c 06 20              	movq	32(%r14,%rax), %rcx
1000052c0: 31 c0                       	xorl	%eax, %eax
1000052c2: 48 83 c4 18                 	addq	$24, %rsp
1000052c6: 5b                          	popq	%rbx
1000052c7: 41 5e                       	popq	%r14
1000052c9: 41 5f                       	popq	%r15
1000052cb: 5d                          	popq	%rbp
1000052cc: 41 ff e0                    	jmpq	*%r8
1000052cf: 48 83 c4 18                 	addq	$24, %rsp
1000052d3: 5b                          	popq	%rbx
1000052d4: 41 5e                       	popq	%r14
1000052d6: 41 5f                       	popq	%r15
1000052d8: 5d                          	popq	%rbp
1000052d9: c3                          	retq
1000052da: 66 0f 1f 44 00 00           	nopw	(%rax,%rax)

00000001000052e0 -[NSWindowEvent mouseUp:]:
1000052e0: 55                          	pushq	%rbp
1000052e1: 48 89 e5                    	movq	%rsp, %rbp
1000052e4: 41 57                       	pushq	%r15
1000052e6: 41 56                       	pushq	%r14
1000052e8: 53                          	pushq	%rbx
1000052e9: 48 83 ec 18                 	subq	$24, %rsp
1000052ed: 48 89 d3                    	movq	%rdx, %rbx
1000052f0: 49 89 fe                    	movq	%rdi, %r14
1000052f3: 48 8b 35 36 36 02 00        	movq	144950(%rip), %rsi
1000052fa: 4c 8b 3d 2f ed 01 00        	movq	126255(%rip), %r15
100005301: 48 89 d7                    	movq	%rdx, %rdi
100005304: 41 ff d7                    	callq	*%r15
100005307: f2 0f 11 45 e0              	movsd	%xmm0, -32(%rbp)
10000530c: f2 0f 11 4d d8              	movsd	%xmm1, -40(%rbp)
100005311: 48 8b 35 20 36 02 00        	movq	144928(%rip), %rsi
100005318: 48 89 df                    	movq	%rbx, %rdi
10000531b: 41 ff d7                    	callq	*%r15
10000531e: 48 83 f8 1b                 	cmpq	$27, %rax
100005322: 77 36                       	ja	54 <-[NSWindowEvent mouseUp:]+0x7a>
100005324: b9 46 00 00 00              	movl	$70, %ecx
100005329: 48 0f a3 c1                 	btq	%rax, %rcx
10000532d: 72 1d                       	jb	29 <-[NSWindowEvent mouseUp:]+0x6c>
10000532f: b9 98 00 00 00              	movl	$152, %ecx
100005334: 48 0f a3 c1                 	btq	%rax, %rcx
100005338: 72 19                       	jb	25 <-[NSWindowEvent mouseUp:]+0x73>
10000533a: b9 00 00 00 0e              	movl	$234881024, %ecx
10000533f: 48 0f a3 c1                 	btq	%rax, %rcx
100005343: 73 15                       	jae	21 <-[NSWindowEvent mouseUp:]+0x7a>
100005345: bf 03 00 00 00              	movl	$3, %edi
10000534a: eb 10                       	jmp	16 <-[NSWindowEvent mouseUp:]+0x7c>
10000534c: bf 01 00 00 00              	movl	$1, %edi
100005351: eb 09                       	jmp	9 <-[NSWindowEvent mouseUp:]+0x7c>
100005353: bf 02 00 00 00              	movl	$2, %edi
100005358: eb 02                       	jmp	2 <-[NSWindowEvent mouseUp:]+0x7c>
10000535a: 31 ff                       	xorl	%edi, %edi
10000535c: 48 8b 05 9d 37 02 00        	movq	145309(%rip), %rax
100005363: 4d 8b 44 06 28              	movq	40(%r14,%rax), %r8
100005368: 4d 85 c0                    	testq	%r8, %r8
10000536b: 74 32                       	je	50 <-[NSWindowEvent mouseUp:]+0xbf>
10000536d: f2 0f 2c 75 e0              	cvttsd2si	-32(%rbp), %esi
100005372: f2 0f 2c 55 d8              	cvttsd2si	-40(%rbp), %edx
100005377: 48 8b 05 aa 37 02 00        	movq	145322(%rip), %rax
10000537e: f7 d2                       	notl	%edx
100005380: 41 03 14 06                 	addl	(%r14,%rax), %edx
100005384: 48 8b 05 7d 37 02 00        	movq	145277(%rip), %rax
10000538b: 49 8b 4c 06 28              	movq	40(%r14,%rax), %rcx
100005390: 31 c0                       	xorl	%eax, %eax
100005392: 48 83 c4 18                 	addq	$24, %rsp
100005396: 5b                          	popq	%rbx
100005397: 41 5e                       	popq	%r14
100005399: 41 5f                       	popq	%r15
10000539b: 5d                          	popq	%rbp
10000539c: 41 ff e0                    	jmpq	*%r8
10000539f: 48 83 c4 18                 	addq	$24, %rsp
1000053a3: 5b                          	popq	%rbx
1000053a4: 41 5e                       	popq	%r14
1000053a6: 41 5f                       	popq	%r15
1000053a8: 5d                          	popq	%rbp
1000053a9: c3                          	retq
1000053aa: 66 0f 1f 44 00 00           	nopw	(%rax,%rax)

00000001000053b0 -[NSWindowEvent rightMouseUp:]:
1000053b0: 55                          	pushq	%rbp
1000053b1: 48 89 e5                    	movq	%rsp, %rbp
1000053b4: 41 57                       	pushq	%r15
1000053b6: 41 56                       	pushq	%r14
1000053b8: 53                          	pushq	%rbx
1000053b9: 48 83 ec 18                 	subq	$24, %rsp
1000053bd: 48 89 d3                    	movq	%rdx, %rbx
1000053c0: 49 89 fe                    	movq	%rdi, %r14
1000053c3: 48 8b 35 66 35 02 00        	movq	144742(%rip), %rsi
1000053ca: 4c 8b 3d 5f ec 01 00        	movq	126047(%rip), %r15
1000053d1: 48 89 d7                    	movq	%rdx, %rdi
1000053d4: 41 ff d7                    	callq	*%r15
1000053d7: f2 0f 11 45 e0              	movsd	%xmm0, -32(%rbp)
1000053dc: f2 0f 11 4d d8              	movsd	%xmm1, -40(%rbp)
1000053e1: 48 8b 35 50 35 02 00        	movq	144720(%rip), %rsi
1000053e8: 48 89 df                    	movq	%rbx, %rdi
1000053eb: 41 ff d7                    	callq	*%r15
1000053ee: 48 83 f8 1b                 	cmpq	$27, %rax
1000053f2: 77 36                       	ja	54 <-[NSWindowEvent rightMouseUp:]+0x7a>
1000053f4: b9 46 00 00 00              	movl	$70, %ecx
1000053f9: 48 0f a3 c1                 	btq	%rax, %rcx
1000053fd: 72 1d                       	jb	29 <-[NSWindowEvent rightMouseUp:]+0x6c>
1000053ff: b9 98 00 00 00              	movl	$152, %ecx
100005404: 48 0f a3 c1                 	btq	%rax, %rcx
100005408: 72 19                       	jb	25 <-[NSWindowEvent rightMouseUp:]+0x73>
10000540a: b9 00 00 00 0e              	movl	$234881024, %ecx
10000540f: 48 0f a3 c1                 	btq	%rax, %rcx
100005413: 73 15                       	jae	21 <-[NSWindowEvent rightMouseUp:]+0x7a>
100005415: bf 03 00 00 00              	movl	$3, %edi
10000541a: eb 10                       	jmp	16 <-[NSWindowEvent rightMouseUp:]+0x7c>
10000541c: bf 01 00 00 00              	movl	$1, %edi
100005421: eb 09                       	jmp	9 <-[NSWindowEvent rightMouseUp:]+0x7c>
100005423: bf 02 00 00 00              	movl	$2, %edi
100005428: eb 02                       	jmp	2 <-[NSWindowEvent rightMouseUp:]+0x7c>
10000542a: 31 ff                       	xorl	%edi, %edi
10000542c: 48 8b 05 cd 36 02 00        	movq	145101(%rip), %rax
100005433: 4d 8b 44 06 28              	movq	40(%r14,%rax), %r8
100005438: 4d 85 c0                    	testq	%r8, %r8
10000543b: 74 32                       	je	50 <-[NSWindowEvent rightMouseUp:]+0xbf>
10000543d: f2 0f 2c 75 e0              	cvttsd2si	-32(%rbp), %esi
100005442: f2 0f 2c 55 d8              	cvttsd2si	-40(%rbp), %edx
100005447: 48 8b 05 da 36 02 00        	movq	145114(%rip), %rax
10000544e: f7 d2                       	notl	%edx
100005450: 41 03 14 06                 	addl	(%r14,%rax), %edx
100005454: 48 8b 05 ad 36 02 00        	movq	145069(%rip), %rax
10000545b: 49 8b 4c 06 28              	movq	40(%r14,%rax), %rcx
100005460: 31 c0                       	xorl	%eax, %eax
100005462: 48 83 c4 18                 	addq	$24, %rsp
100005466: 5b                          	popq	%rbx
100005467: 41 5e                       	popq	%r14
100005469: 41 5f                       	popq	%r15
10000546b: 5d                          	popq	%rbp
10000546c: 41 ff e0                    	jmpq	*%r8
10000546f: 48 83 c4 18                 	addq	$24, %rsp
100005473: 5b                          	popq	%rbx
100005474: 41 5e                       	popq	%r14
100005476: 41 5f                       	popq	%r15
100005478: 5d                          	popq	%rbp
100005479: c3                          	retq
10000547a: 66 0f 1f 44 00 00           	nopw	(%rax,%rax)

0000000100005480 -[NSWindowEvent otherMouseUp:]:
100005480: 55                          	pushq	%rbp
100005481: 48 89 e5                    	movq	%rsp, %rbp
100005484: 41 57                       	pushq	%r15
100005486: 41 56                       	pushq	%r14
100005488: 53                          	pushq	%rbx
100005489: 48 83 ec 18                 	subq	$24, %rsp
10000548d: 48 89 d3                    	movq	%rdx, %rbx
100005490: 49 89 fe                    	movq	%rdi, %r14
100005493: 48 8b 35 96 34 02 00        	movq	144534(%rip), %rsi
10000549a: 4c 8b 3d 8f eb 01 00        	movq	125839(%rip), %r15
1000054a1: 48 89 d7                    	movq	%rdx, %rdi
1000054a4: 41 ff d7                    	callq	*%r15
1000054a7: f2 0f 11 45 e0              	movsd	%xmm0, -32(%rbp)
1000054ac: f2 0f 11 4d d8              	movsd	%xmm1, -40(%rbp)
1000054b1: 48 8b 35 80 34 02 00        	movq	144512(%rip), %rsi
1000054b8: 48 89 df                    	movq	%rbx, %rdi
1000054bb: 41 ff d7                    	callq	*%r15
1000054be: 48 83 f8 1b                 	cmpq	$27, %rax
1000054c2: 77 36                       	ja	54 <-[NSWindowEvent otherMouseUp:]+0x7a>
1000054c4: b9 46 00 00 00              	movl	$70, %ecx
1000054c9: 48 0f a3 c1                 	btq	%rax, %rcx
1000054cd: 72 1d                       	jb	29 <-[NSWindowEvent otherMouseUp:]+0x6c>
1000054cf: b9 98 00 00 00              	movl	$152, %ecx
1000054d4: 48 0f a3 c1                 	btq	%rax, %rcx
1000054d8: 72 19                       	jb	25 <-[NSWindowEvent otherMouseUp:]+0x73>
1000054da: b9 00 00 00 0e              	movl	$234881024, %ecx
1000054df: 48 0f a3 c1                 	btq	%rax, %rcx
1000054e3: 73 15                       	jae	21 <-[NSWindowEvent otherMouseUp:]+0x7a>
1000054e5: bf 03 00 00 00              	movl	$3, %edi
1000054ea: eb 10                       	jmp	16 <-[NSWindowEvent otherMouseUp:]+0x7c>
1000054ec: bf 01 00 00 00              	movl	$1, %edi
1000054f1: eb 09                       	jmp	9 <-[NSWindowEvent otherMouseUp:]+0x7c>
1000054f3: bf 02 00 00 00              	movl	$2, %edi
1000054f8: eb 02                       	jmp	2 <-[NSWindowEvent otherMouseUp:]+0x7c>
1000054fa: 31 ff                       	xorl	%edi, %edi
1000054fc: 48 8b 05 fd 35 02 00        	movq	144893(%rip), %rax
100005503: 4d 8b 44 06 28              	movq	40(%r14,%rax), %r8
100005508: 4d 85 c0                    	testq	%r8, %r8
10000550b: 74 32                       	je	50 <-[NSWindowEvent otherMouseUp:]+0xbf>
10000550d: f2 0f 2c 75 e0              	cvttsd2si	-32(%rbp), %esi
100005512: f2 0f 2c 55 d8              	cvttsd2si	-40(%rbp), %edx
100005517: 48 8b 05 0a 36 02 00        	movq	144906(%rip), %rax
10000551e: f7 d2                       	notl	%edx
100005520: 41 03 14 06                 	addl	(%r14,%rax), %edx
100005524: 48 8b 05 dd 35 02 00        	movq	144861(%rip), %rax
10000552b: 49 8b 4c 06 28              	movq	40(%r14,%rax), %rcx
100005530: 31 c0                       	xorl	%eax, %eax
100005532: 48 83 c4 18                 	addq	$24, %rsp
100005536: 5b                          	popq	%rbx
100005537: 41 5e                       	popq	%r14
100005539: 41 5f                       	popq	%r15
10000553b: 5d                          	popq	%rbp
10000553c: 41 ff e0                    	jmpq	*%r8
10000553f: 48 83 c4 18                 	addq	$24, %rsp
100005543: 5b                          	popq	%rbx
100005544: 41 5e                       	popq	%r14
100005546: 41 5f                       	popq	%r15
100005548: 5d                          	popq	%rbp
100005549: c3                          	retq
10000554a: 66 0f 1f 44 00 00           	nopw	(%rax,%rax)

0000000100005550 -[NSWindowEvent mouseMoved:]:
100005550: 55                          	pushq	%rbp
100005551: 48 89 e5                    	movq	%rsp, %rbp
100005554: 53                          	pushq	%rbx
100005555: 50                          	pushq	%rax
100005556: 48 89 fb                    	movq	%rdi, %rbx
100005559: 48 8b 35 d0 33 02 00        	movq	144336(%rip), %rsi
100005560: 48 89 d7                    	movq	%rdx, %rdi
100005563: ff 15 c7 ea 01 00           	callq	*125639(%rip)
100005569: 48 8b 05 90 35 02 00        	movq	144784(%rip), %rax
100005570: 48 8b 4c 03 30              	movq	48(%rbx,%rax), %rcx
100005575: 48 85 c9                    	testq	%rcx, %rcx
100005578: 74 2a                       	je	42 <-[NSWindowEvent mouseMoved:]+0x54>
10000557a: f2 0f 2c f8                 	cvttsd2si	%xmm0, %edi
10000557e: f2 0f 2c f1                 	cvttsd2si	%xmm1, %esi
100005582: 48 8b 05 9f 35 02 00        	movq	144799(%rip), %rax
100005589: f7 d6                       	notl	%esi
10000558b: 03 34 03                    	addl	(%rbx,%rax), %esi
10000558e: 48 8b 05 73 35 02 00        	movq	144755(%rip), %rax
100005595: 48 8b 54 03 30              	movq	48(%rbx,%rax), %rdx
10000559a: 31 c0                       	xorl	%eax, %eax
10000559c: 48 83 c4 08                 	addq	$8, %rsp
1000055a0: 5b                          	popq	%rbx
1000055a1: 5d                          	popq	%rbp
1000055a2: ff e1                       	jmpq	*%rcx
1000055a4: 48 83 c4 08                 	addq	$8, %rsp
1000055a8: 5b                          	popq	%rbx
1000055a9: 5d                          	popq	%rbp
1000055aa: c3                          	retq
1000055ab: 0f 1f 44 00 00              	nopl	(%rax,%rax)

00000001000055b0 -[NSWindowEvent mouseDragged:]:
1000055b0: 55                          	pushq	%rbp
1000055b1: 48 89 e5                    	movq	%rsp, %rbp
1000055b4: 53                          	pushq	%rbx
1000055b5: 50                          	pushq	%rax
1000055b6: 48 89 fb                    	movq	%rdi, %rbx
1000055b9: 48 8b 35 70 33 02 00        	movq	144240(%rip), %rsi
1000055c0: 48 89 d7                    	movq	%rdx, %rdi
1000055c3: ff 15 67 ea 01 00           	callq	*125543(%rip)
1000055c9: 48 8b 05 30 35 02 00        	movq	144688(%rip), %rax
1000055d0: 48 8b 4c 03 30              	movq	48(%rbx,%rax), %rcx
1000055d5: 48 85 c9                    	testq	%rcx, %rcx
1000055d8: 74 2a                       	je	42 <-[NSWindowEvent mouseDragged:]+0x54>
1000055da: f2 0f 2c f8                 	cvttsd2si	%xmm0, %edi
1000055de: f2 0f 2c f1                 	cvttsd2si	%xmm1, %esi
1000055e2: 48 8b 05 3f 35 02 00        	movq	144703(%rip), %rax
1000055e9: f7 d6                       	notl	%esi
1000055eb: 03 34 03                    	addl	(%rbx,%rax), %esi
1000055ee: 48 8b 05 13 35 02 00        	movq	144659(%rip), %rax
1000055f5: 48 8b 54 03 30              	movq	48(%rbx,%rax), %rdx
1000055fa: 31 c0                       	xorl	%eax, %eax
1000055fc: 48 83 c4 08                 	addq	$8, %rsp
100005600: 5b                          	popq	%rbx
100005601: 5d                          	popq	%rbp
100005602: ff e1                       	jmpq	*%rcx
100005604: 48 83 c4 08                 	addq	$8, %rsp
100005608: 5b                          	popq	%rbx
100005609: 5d                          	popq	%rbp
10000560a: c3                          	retq
10000560b: 0f 1f 44 00 00              	nopl	(%rax,%rax)

0000000100005610 -[NSWindowEvent rightMouseDragged:]:
100005610: 55                          	pushq	%rbp
100005611: 48 89 e5                    	movq	%rsp, %rbp
100005614: 53                          	pushq	%rbx
100005615: 50                          	pushq	%rax
100005616: 48 89 fb                    	movq	%rdi, %rbx
100005619: 48 8b 35 10 33 02 00        	movq	144144(%rip), %rsi
100005620: 48 89 d7                    	movq	%rdx, %rdi
100005623: ff 15 07 ea 01 00           	callq	*125447(%rip)
100005629: 48 8b 05 d0 34 02 00        	movq	144592(%rip), %rax
100005630: 48 8b 4c 03 30              	movq	48(%rbx,%rax), %rcx
100005635: 48 85 c9                    	testq	%rcx, %rcx
100005638: 74 2a                       	je	42 <-[NSWindowEvent rightMouseDragged:]+0x54>
10000563a: f2 0f 2c f8                 	cvttsd2si	%xmm0, %edi
10000563e: f2 0f 2c f1                 	cvttsd2si	%xmm1, %esi
100005642: 48 8b 05 df 34 02 00        	movq	144607(%rip), %rax
100005649: f7 d6                       	notl	%esi
10000564b: 03 34 03                    	addl	(%rbx,%rax), %esi
10000564e: 48 8b 05 b3 34 02 00        	movq	144563(%rip), %rax
100005655: 48 8b 54 03 30              	movq	48(%rbx,%rax), %rdx
10000565a: 31 c0                       	xorl	%eax, %eax
10000565c: 48 83 c4 08                 	addq	$8, %rsp
100005660: 5b                          	popq	%rbx
100005661: 5d                          	popq	%rbp
100005662: ff e1                       	jmpq	*%rcx
100005664: 48 83 c4 08                 	addq	$8, %rsp
100005668: 5b                          	popq	%rbx
100005669: 5d                          	popq	%rbp
10000566a: c3                          	retq
10000566b: 0f 1f 44 00 00              	nopl	(%rax,%rax)

0000000100005670 -[NSWindowEvent otherMouseDragged:]:
100005670: 55                          	pushq	%rbp
100005671: 48 89 e5                    	movq	%rsp, %rbp
100005674: 53                          	pushq	%rbx
100005675: 50                          	pushq	%rax
100005676: 48 89 fb                    	movq	%rdi, %rbx
100005679: 48 8b 35 b0 32 02 00        	movq	144048(%rip), %rsi
100005680: 48 89 d7                    	movq	%rdx, %rdi
100005683: ff 15 a7 e9 01 00           	callq	*125351(%rip)
100005689: 48 8b 05 70 34 02 00        	movq	144496(%rip), %rax
100005690: 48 8b 4c 03 30              	movq	48(%rbx,%rax), %rcx
100005695: 48 85 c9                    	testq	%rcx, %rcx
100005698: 74 2a                       	je	42 <-[NSWindowEvent otherMouseDragged:]+0x54>
10000569a: f2 0f 2c f8                 	cvttsd2si	%xmm0, %edi
10000569e: f2 0f 2c f1                 	cvttsd2si	%xmm1, %esi
1000056a2: 48 8b 05 7f 34 02 00        	movq	144511(%rip), %rax
1000056a9: f7 d6                       	notl	%esi
1000056ab: 03 34 03                    	addl	(%rbx,%rax), %esi
1000056ae: 48 8b 05 53 34 02 00        	movq	144467(%rip), %rax
1000056b5: 48 8b 54 03 30              	movq	48(%rbx,%rax), %rdx
1000056ba: 31 c0                       	xorl	%eax, %eax
1000056bc: 48 83 c4 08                 	addq	$8, %rsp
1000056c0: 5b                          	popq	%rbx
1000056c1: 5d                          	popq	%rbp
1000056c2: ff e1                       	jmpq	*%rcx
1000056c4: 48 83 c4 08                 	addq	$8, %rsp
1000056c8: 5b                          	popq	%rbx
1000056c9: 5d                          	popq	%rbp
1000056ca: c3                          	retq
1000056cb: 0f 1f 44 00 00              	nopl	(%rax,%rax)

00000001000056d0 -[NSWindowEvent scrollWheel:]:
1000056d0: 55                          	pushq	%rbp
1000056d1: 48 89 e5                    	movq	%rsp, %rbp
1000056d4: 41 57                       	pushq	%r15
1000056d6: 41 56                       	pushq	%r14
1000056d8: 41 55                       	pushq	%r13
1000056da: 41 54                       	pushq	%r12
1000056dc: 53                          	pushq	%rbx
1000056dd: 48 83 ec 18                 	subq	$24, %rsp
1000056e1: 4c 8b 3d 18 34 02 00        	movq	144408(%rip), %r15
1000056e8: 4a 83 7c 3f 20 00           	cmpq	$0, 32(%rdi,%r15)
1000056ee: 0f 84 d5 00 00 00           	je	213 <-[NSWindowEvent scrollWheel:]+0xf9>
1000056f4: 49 89 d5                    	movq	%rdx, %r13
1000056f7: 49 89 fe                    	movq	%rdi, %r14
1000056fa: 48 8b 35 2f 32 02 00        	movq	143919(%rip), %rsi
100005701: 4c 8b 25 28 e9 01 00        	movq	125224(%rip), %r12
100005708: 48 89 d7                    	movq	%rdx, %rdi
10000570b: 41 ff d4                    	callq	*%r12
10000570e: f2 0f 11 45 d0              	movsd	%xmm0, -48(%rbp)
100005713: f2 0f 11 4d c8              	movsd	%xmm1, -56(%rbp)
100005718: 48 8b 35 21 32 02 00        	movq	143905(%rip), %rsi
10000571f: 4c 89 ef                    	movq	%r13, %rdi
100005722: 41 ff d4                    	callq	*%r12
100005725: f2 0f 5a c0                 	cvtsd2ss	%xmm0, %xmm0
100005729: f3 0f 5a c0                 	cvtss2sd	%xmm0, %xmm0
10000572d: 31 c0                       	xorl	%eax, %eax
10000572f: 66 0f 2e 05 b9 79 00 00     	ucomisd	31161(%rip), %xmm0
100005737: 0f 97 c0                    	seta	%al
10000573a: c1 e0 02                    	shll	$2, %eax
10000573d: f2 0f 10 0d b3 79 00 00     	movsd	31155(%rip), %xmm1
100005745: 66 0f 2e c8                 	ucomisd	%xmm0, %xmm1
100005749: bb 05 00 00 00              	movl	$5, %ebx
10000574e: 0f 46 d8                    	cmovbel	%eax, %ebx
100005751: 48 8b 35 f0 31 02 00        	movq	143856(%rip), %rsi
100005758: 4c 89 ef                    	movq	%r13, %rdi
10000575b: 41 ff d4                    	callq	*%r12
10000575e: f2 0f 5a c0                 	cvtsd2ss	%xmm0, %xmm0
100005762: f3 0f 5a c0                 	cvtss2sd	%xmm0, %xmm0
100005766: 66 0f 2e 05 82 79 00 00     	ucomisd	31106(%rip), %xmm0
10000576e: b8 06 00 00 00              	movl	$6, %eax
100005773: 0f 46 c3                    	cmovbel	%ebx, %eax
100005776: f2 0f 10 0d 7a 79 00 00     	movsd	31098(%rip), %xmm1
10000577e: 66 0f 2e c8                 	ucomisd	%xmm0, %xmm1
100005782: bf 07 00 00 00              	movl	$7, %edi
100005787: 0f 46 f8                    	cmovbel	%eax, %edi
10000578a: 85 ff                       	testl	%edi, %edi
10000578c: 74 3b                       	je	59 <-[NSWindowEvent scrollWheel:]+0xf9>
10000578e: f2 0f 2c 75 d0              	cvttsd2si	-48(%rbp), %esi
100005793: f2 0f 2c 55 c8              	cvttsd2si	-56(%rbp), %edx
100005798: 48 8b 05 89 33 02 00        	movq	144265(%rip), %rax
10000579f: f7 d2                       	notl	%edx
1000057a1: 41 03 14 06                 	addl	(%r14,%rax), %edx
1000057a5: 4f 8b 44 3e 20              	movq	32(%r14,%r15), %r8
1000057aa: 48 8b 05 57 33 02 00        	movq	144215(%rip), %rax
1000057b1: 49 8b 4c 06 20              	movq	32(%r14,%rax), %rcx
1000057b6: 31 c0                       	xorl	%eax, %eax
1000057b8: 48 83 c4 18                 	addq	$24, %rsp
1000057bc: 5b                          	popq	%rbx
1000057bd: 41 5c                       	popq	%r12
1000057bf: 41 5d                       	popq	%r13
1000057c1: 41 5e                       	popq	%r14
1000057c3: 41 5f                       	popq	%r15
1000057c5: 5d                          	popq	%rbp
1000057c6: 41 ff e0                    	jmpq	*%r8
1000057c9: 48 83 c4 18                 	addq	$24, %rsp
1000057cd: 5b                          	popq	%rbx
1000057ce: 41 5c                       	popq	%r12
1000057d0: 41 5d                       	popq	%r13
1000057d2: 41 5e                       	popq	%r14
1000057d4: 41 5f                       	popq	%r15
1000057d6: 5d                          	popq	%rbp
1000057d7: c3                          	retq
1000057d8: 0f 1f 84 00 00 00 00 00     	nopl	(%rax,%rax)

00000001000057e0 -[NSWindowEvent exposeNotification:]:
1000057e0: 55                          	pushq	%rbp
1000057e1: 48 89 e5                    	movq	%rsp, %rbp
1000057e4: 48 8b 05 15 33 02 00        	movq	144149(%rip), %rax
1000057eb: 48 8b 4c 07 60              	movq	96(%rdi,%rax), %rcx
1000057f0: 48 85 c9                    	testq	%rcx, %rcx
1000057f3: 74 11                       	je	17 <-[NSWindowEvent exposeNotification:]+0x26>
1000057f5: 48 8b 05 0c 33 02 00        	movq	144140(%rip), %rax
1000057fc: 48 8b 7c 07 60              	movq	96(%rdi,%rax), %rdi
100005801: 31 c0                       	xorl	%eax, %eax
100005803: 5d                          	popq	%rbp
100005804: ff e1                       	jmpq	*%rcx
100005806: 5d                          	popq	%rbp
100005807: c3                          	retq
100005808: 0f 1f 84 00 00 00 00 00     	nopl	(%rax,%rax)

0000000100005810 -[NSWindowEvent closeNotification:]:
100005810: 55                          	pushq	%rbp
100005811: 48 89 e5                    	movq	%rsp, %rbp
100005814: 48 8b 05 e5 32 02 00        	movq	144101(%rip), %rax
10000581b: 48 8b 8c 07 88 00 00 00     	movq	136(%rdi,%rax), %rcx
100005823: 48 85 c9                    	testq	%rcx, %rcx
100005826: 74 14                       	je	20 <-[NSWindowEvent closeNotification:]+0x2c>
100005828: 48 8b 05 d9 32 02 00        	movq	144089(%rip), %rax
10000582f: 48 8b bc 07 88 00 00 00     	movq	136(%rdi,%rax), %rdi
100005837: 31 c0                       	xorl	%eax, %eax
100005839: 5d                          	popq	%rbp
10000583a: ff e1                       	jmpq	*%rcx
10000583c: 5d                          	popq	%rbp
10000583d: c3                          	retq
10000583e: 66 90                       	nop

0000000100005840 -[NSWindowEvent deminiaturizeNotification:]:
100005840: 55                          	pushq	%rbp
100005841: 48 89 e5                    	movq	%rsp, %rbp
100005844: 48 8b 35 05 31 02 00        	movq	143621(%rip), %rsi
10000584b: 5d                          	popq	%rbp
10000584c: ff 25 de e7 01 00           	jmpq	*124894(%rip)
100005852: 66 2e 0f 1f 84 00 00 00 00 00       	nopw	%cs:(%rax,%rax)
10000585c: 0f 1f 40 00                 	nopl	(%rax)

0000000100005860 -[MlxWin initWithRect:andTitle:pfaAttrs:]:
100005860: 55                          	pushq	%rbp
100005861: 48 89 e5                    	movq	%rsp, %rbp
100005864: 41 57                       	pushq	%r15
100005866: 41 56                       	pushq	%r14
100005868: 41 55                       	pushq	%r13
10000586a: 41 54                       	pushq	%r12
10000586c: 53                          	pushq	%rbx
10000586d: 48 83 ec 18                 	subq	$24, %rsp
100005871: 48 89 cb                    	movq	%rcx, %rbx
100005874: 49 89 d7                    	movq	%rdx, %r15
100005877: 49 89 fc                    	movq	%rdi, %r12
10000587a: 48 8b 3d 27 32 02 00        	movq	143911(%rip), %rdi
100005881: e8 50 50 00 00              	callq	20560 <dyld_stub_binder+0x10000a8d6>
100005886: 48 8b 35 cb 30 02 00        	movq	143563(%rip), %rsi
10000588d: 48 89 c7                    	movq	%rax, %rdi
100005890: 48 89 da                    	movq	%rbx, %rdx
100005893: ff 15 97 e7 01 00           	callq	*124823(%rip)
100005899: 49 89 c6                    	movq	%rax, %r14
10000589c: 4c 89 65 c0                 	movq	%r12, -64(%rbp)
1000058a0: 48 8b 05 51 32 02 00        	movq	143953(%rip), %rax
1000058a7: 48 89 45 c8                 	movq	%rax, -56(%rbp)
1000058ab: 48 8b 35 ae 30 02 00        	movq	143534(%rip), %rsi
1000058b2: 48 8b 45 28                 	movq	40(%rbp), %rax
1000058b6: 48 8b 4d 20                 	movq	32(%rbp), %rcx
1000058ba: 4c 8b 45 10                 	movq	16(%rbp), %r8
1000058be: 48 8b 5d 18                 	movq	24(%rbp), %rbx
1000058c2: 48 8d 7d c0                 	leaq	-64(%rbp), %rdi
1000058c6: 4c 89 f2                    	movq	%r14, %rdx
1000058c9: 50                          	pushq	%rax
1000058ca: 51                          	pushq	%rcx
1000058cb: 53                          	pushq	%rbx
1000058cc: 41 50                       	pushq	%r8
1000058ce: e8 09 50 00 00              	callq	20489 <dyld_stub_binder+0x10000a8dc>
1000058d3: 48 83 c4 20                 	addq	$32, %rsp
1000058d7: 48 89 c3                    	movq	%rax, %rbx
1000058da: 48 85 c0                    	testq	%rax, %rax
1000058dd: 0f 84 d5 01 00 00           	je	469 <-[MlxWin initWithRect:andTitle:pfaAttrs:]+0x258>
1000058e3: 4c 8d 65 10                 	leaq	16(%rbp), %r12
1000058e7: 48 8b 3d c2 31 02 00        	movq	143810(%rip), %rdi
1000058ee: e8 e3 4f 00 00              	callq	20451 <dyld_stub_binder+0x10000a8d6>
1000058f3: 48 8b 35 0e 30 02 00        	movq	143374(%rip), %rsi
1000058fa: 4d 8b 4c 24 18              	movq	24(%r12), %r9
1000058ff: 4d 8b 54 24 10              	movq	16(%r12), %r10
100005904: 4d 8b 1c 24                 	movq	(%r12), %r11
100005908: 4d 8b 64 24 08              	movq	8(%r12), %r12
10000590d: 4c 89 75 d0                 	movq	%r14, -48(%rbp)
100005911: 4c 8b 35 18 e7 01 00        	movq	124696(%rip), %r14
100005918: ba 07 00 00 00              	movl	$7, %edx
10000591d: b9 02 00 00 00              	movl	$2, %ecx
100005922: 48 89 c7                    	movq	%rax, %rdi
100005925: 41 b8 00 00 00 00           	movl	$0, %r8d
10000592b: 41 51                       	pushq	%r9
10000592d: 41 52                       	pushq	%r10
10000592f: 41 54                       	pushq	%r12
100005931: 41 53                       	pushq	%r11
100005933: 41 ff d6                    	callq	*%r14
100005936: 48 83 c4 20                 	addq	$32, %rsp
10000593a: 4c 8b 2d ef 31 02 00        	movq	143855(%rip), %r13
100005941: 4a 89 04 2b                 	movq	%rax, (%rbx,%r13)
100005945: 48 8b 35 1c 30 02 00        	movq	143388(%rip), %rsi
10000594c: 48 89 c7                    	movq	%rax, %rdi
10000594f: 48 89 da                    	movq	%rbx, %rdx
100005952: 41 ff d6                    	callq	*%r14
100005955: 4a 8b 3c 2b                 	movq	(%rbx,%r13), %rdi
100005959: 48 8b 35 10 30 02 00        	movq	143376(%rip), %rsi
100005960: 4c 89 fa                    	movq	%r15, %rdx
100005963: 41 ff d6                    	callq	*%r14
100005966: 4a 8b 3c 2b                 	movq	(%rbx,%r13), %rdi
10000596a: 48 8b 35 07 30 02 00        	movq	143367(%rip), %rsi
100005971: ba 01 00 00 00              	movl	$1, %edx
100005976: 41 ff d6                    	callq	*%r14
100005979: 4a 8b 3c 2b                 	movq	(%rbx,%r13), %rdi
10000597d: 48 8b 35 fc 2f 02 00        	movq	143356(%rip), %rsi
100005984: 48 89 da                    	movq	%rbx, %rdx
100005987: 41 ff d6                    	callq	*%r14
10000598a: 4c 8b 3d f7 2f 02 00        	movq	143351(%rip), %r15
100005991: 48 89 df                    	movq	%rbx, %rdi
100005994: 4c 89 fe                    	movq	%r15, %rsi
100005997: 41 ff d6                    	callq	*%r14
10000599a: 48 8b 35 ef 2f 02 00        	movq	143343(%rip), %rsi
1000059a1: 48 89 c7                    	movq	%rax, %rdi
1000059a4: 41 ff d6                    	callq	*%r14
1000059a7: 48 89 df                    	movq	%rbx, %rdi
1000059aa: 4c 89 fe                    	movq	%r15, %rsi
1000059ad: 41 ff d6                    	callq	*%r14
1000059b0: 48 8b 35 e1 2f 02 00        	movq	143329(%rip), %rsi
1000059b7: 48 89 c7                    	movq	%rax, %rdi
1000059ba: 48 89 da                    	movq	%rbx, %rdx
1000059bd: 41 ff d6                    	callq	*%r14
1000059c0: 48 8b 35 d9 2f 02 00        	movq	143321(%rip), %rsi
1000059c7: 48 89 df                    	movq	%rbx, %rdi
1000059ca: 41 ff d6                    	callq	*%r14
1000059cd: 48 8b 35 d4 2f 02 00        	movq	143316(%rip), %rsi
1000059d4: 48 89 df                    	movq	%rbx, %rdi
1000059d7: 48 89 da                    	movq	%rbx, %rdx
1000059da: 41 ff d6                    	callq	*%r14
1000059dd: 48 8b 3d d4 30 02 00        	movq	143572(%rip), %rdi
1000059e4: 4c 8b 3d c5 2f 02 00        	movq	143301(%rip), %r15
1000059eb: 4c 89 fe                    	movq	%r15, %rsi
1000059ee: 41 ff d6                    	callq	*%r14
1000059f1: 4a 8b 14 2b                 	movq	(%rbx,%r13), %rdx
1000059f5: 48 8b 0d 54 2f 02 00        	movq	143188(%rip), %rcx
1000059fc: 4c 8b 25 b5 2f 02 00        	movq	143285(%rip), %r12
100005a03: 4c 8d 05 3e e6 01 00        	leaq	124478(%rip), %r8
100005a0a: 48 89 c7                    	movq	%rax, %rdi
100005a0d: 4c 89 e6                    	movq	%r12, %rsi
100005a10: 49 89 d1                    	movq	%rdx, %r9
100005a13: 41 ff d6                    	callq	*%r14
100005a16: 48 8b 3d 9b 30 02 00        	movq	143515(%rip), %rdi
100005a1d: 4c 89 fe                    	movq	%r15, %rsi
100005a20: 41 ff d6                    	callq	*%r14
100005a23: 4a 8b 14 2b                 	movq	(%rbx,%r13), %rdx
100005a27: 48 8b 0d 92 2f 02 00        	movq	143250(%rip), %rcx
100005a2e: 4c 8d 05 33 e6 01 00        	leaq	124467(%rip), %r8
100005a35: 48 89 c7                    	movq	%rax, %rdi
100005a38: 4c 89 e6                    	movq	%r12, %rsi
100005a3b: 49 89 d1                    	movq	%rdx, %r9
100005a3e: 41 ff d6                    	callq	*%r14
100005a41: 48 8b 3d 70 30 02 00        	movq	143472(%rip), %rdi
100005a48: 4c 89 fe                    	movq	%r15, %rsi
100005a4b: 41 ff d6                    	callq	*%r14
100005a4e: 4a 8b 14 2b                 	movq	(%rbx,%r13), %rdx
100005a52: 48 8b 0d 6f 2f 02 00        	movq	143215(%rip), %rcx
100005a59: 4c 8d 05 28 e6 01 00        	leaq	124456(%rip), %r8
100005a60: 48 89 c7                    	movq	%rax, %rdi
100005a63: 4c 89 e6                    	movq	%r12, %rsi
100005a66: 49 89 d1                    	movq	%rdx, %r9
100005a69: 41 ff d6                    	callq	*%r14
100005a6c: 48 8d 55 10                 	leaq	16(%rbp), %rdx
100005a70: f2 0f 2c 42 10              	cvttsd2si	16(%rdx), %eax
100005a75: 48 8b 0d bc 30 02 00        	movq	143548(%rip), %rcx
100005a7c: 89 04 0b                    	movl	%eax, (%rbx,%rcx)
100005a7f: f2 0f 2c 42 18              	cvttsd2si	24(%rdx), %eax
100005a84: 48 8b 0d b5 30 02 00        	movq	143541(%rip), %rcx
100005a8b: 89 04 0b                    	movl	%eax, (%rbx,%rcx)
100005a8e: 0f 57 c0                    	xorps	%xmm0, %xmm0
100005a91: 0f 57 c9                    	xorps	%xmm1, %xmm1
100005a94: 0f 57 d2                    	xorps	%xmm2, %xmm2
100005a97: 0f 57 db                    	xorps	%xmm3, %xmm3
100005a9a: e8 59 4d 00 00              	callq	19801 <dyld_stub_binder+0x10000a7f8>
100005a9f: bf 00 40 00 00              	movl	$16384, %edi
100005aa4: e8 49 4d 00 00              	callq	19785 <dyld_stub_binder+0x10000a7f2>
100005aa9: e8 98 4d 00 00              	callq	19864 <dyld_stub_binder+0x10000a846>
100005aae: 48 8b 7d d0                 	movq	-48(%rbp), %rdi
100005ab2: ff 15 80 e5 01 00           	callq	*124288(%rip)
100005ab8: 48 89 d8                    	movq	%rbx, %rax
100005abb: 48 83 c4 18                 	addq	$24, %rsp
100005abf: 5b                          	popq	%rbx
100005ac0: 41 5c                       	popq	%r12
100005ac2: 41 5d                       	popq	%r13
100005ac4: 41 5e                       	popq	%r14
100005ac6: 41 5f                       	popq	%r15
100005ac8: 5d                          	popq	%rbp
100005ac9: c3                          	retq
100005aca: 66 0f 1f 44 00 00           	nopw	(%rax,%rax)

0000000100005ad0 -[MlxWin pixel_management]:
100005ad0: 55                          	pushq	%rbp
100005ad1: 48 89 e5                    	movq	%rsp, %rbp
100005ad4: 41 57                       	pushq	%r15
100005ad6: 41 56                       	pushq	%r14
100005ad8: 41 55                       	pushq	%r13
100005ada: 41 54                       	pushq	%r12
100005adc: 53                          	pushq	%rbx
100005add: 50                          	pushq	%rax
100005ade: 49 89 ff                    	movq	%rdi, %r15
100005ae1: 48 8b 05 60 30 02 00        	movq	143456(%rip), %rax
100005ae8: 4c 8d 34 07                 	leaq	(%rdi,%rax), %r14
100005aec: 48 c7 04 07 00 00 00 00     	movq	$0, (%rdi,%rax)
100005af4: 48 c7 44 07 08 00 00 00 00  	movq	$0, 8(%rdi,%rax)
100005afd: 48 c7 44 07 10 00 00 00 00  	movq	$0, 16(%rdi,%rax)
100005b06: 48 c7 44 07 18 00 00 00 00  	movq	$0, 24(%rdi,%rax)
100005b0f: 48 c7 44 07 20 00 00 00 00  	movq	$0, 32(%rdi,%rax)
100005b18: 48 c7 44 07 28 00 00 00 00  	movq	$0, 40(%rdi,%rax)
100005b21: 48 c7 44 07 30 00 00 00 00  	movq	$0, 48(%rdi,%rax)
100005b2a: 48 c7 44 07 38 00 00 00 00  	movq	$0, 56(%rdi,%rax)
100005b33: 48 c7 44 07 40 00 00 00 00  	movq	$0, 64(%rdi,%rax)
100005b3c: 48 c7 44 07 48 00 00 00 00  	movq	$0, 72(%rdi,%rax)
100005b45: 48 c7 44 07 50 00 00 00 00  	movq	$0, 80(%rdi,%rax)
100005b4e: 48 c7 44 07 58 00 00 00 00  	movq	$0, 88(%rdi,%rax)
100005b57: bf 71 0b 00 00              	movl	$2929, %edi
100005b5c: e8 c7 4c 00 00              	callq	19655 <dyld_stub_binder+0x10000a828>
100005b61: 48 8b 1d e8 2f 02 00        	movq	143336(%rip), %rbx
100005b68: 49 8d 34 1f                 	leaq	(%r15,%rbx), %rsi
100005b6c: bf 01 00 00 00              	movl	$1, %edi
100005b71: e8 d6 4c 00 00              	callq	19670 <dyld_stub_binder+0x10000a84c>
100005b76: 41 8b 34 1f                 	movl	(%r15,%rbx), %esi
100005b7a: bf 92 88 00 00              	movl	$34962, %edi
100005b7f: e8 50 4c 00 00              	callq	19536 <dyld_stub_binder+0x10000a7d4>
100005b84: 48 8d 15 a5 75 00 00        	leaq	30117(%rip), %rdx
100005b8b: be 20 00 00 00              	movl	$32, %esi
100005b90: bf 92 88 00 00              	movl	$34962, %edi
100005b95: b9 e8 88 00 00              	movl	$35048, %ecx
100005b9a: e8 4d 4c 00 00              	callq	19533 <dyld_stub_binder+0x10000a7ec>
100005b9f: 48 8b 1d b2 2f 02 00        	movq	143282(%rip), %rbx
100005ba6: 49 8d 34 1f                 	leaq	(%r15,%rbx), %rsi
100005baa: bf 01 00 00 00              	movl	$1, %edi
100005baf: e8 9e 4c 00 00              	callq	19614 <dyld_stub_binder+0x10000a852>
100005bb4: 41 8b 34 1f                 	movl	(%r15,%rbx), %esi
100005bb8: bf e1 0d 00 00              	movl	$3553, %edi
100005bbd: e8 18 4c 00 00              	callq	19480 <dyld_stub_binder+0x10000a7da>
100005bc2: bf e1 0d 00 00              	movl	$3553, %edi
100005bc7: be 01 28 00 00              	movl	$10241, %esi
100005bcc: ba 00 26 00 00              	movl	$9728, %edx
100005bd1: e8 b8 4c 00 00              	callq	19640 <dyld_stub_binder+0x10000a88e>
100005bd6: bf e1 0d 00 00              	movl	$3553, %edi
100005bdb: be 00 28 00 00              	movl	$10240, %esi
100005be0: ba 00 26 00 00              	movl	$9728, %edx
100005be5: e8 a4 4c 00 00              	callq	19620 <dyld_stub_binder+0x10000a88e>
100005bea: bf e1 0d 00 00              	movl	$3553, %edi
100005bef: be 02 28 00 00              	movl	$10242, %esi
100005bf4: ba 2f 81 00 00              	movl	$33071, %edx
100005bf9: e8 90 4c 00 00              	callq	19600 <dyld_stub_binder+0x10000a88e>
100005bfe: bf e1 0d 00 00              	movl	$3553, %edi
100005c03: be 03 28 00 00              	movl	$10243, %esi
100005c08: ba 2f 81 00 00              	movl	$33071, %edx
100005c0d: e8 7c 4c 00 00              	callq	19580 <dyld_stub_binder+0x10000a88e>
100005c12: 48 8b 05 1f 2f 02 00        	movq	143135(%rip), %rax
100005c19: 49 63 1c 07                 	movslq	(%r15,%rax), %rbx
100005c1d: 4c 8b 25 1c 2f 02 00        	movq	143132(%rip), %r12
100005c24: 4f 63 2c 27                 	movslq	(%r15,%r12), %r13
100005c28: 48 89 df                    	movq	%rbx, %rdi
100005c2b: 49 0f af fd                 	imulq	%r13, %rdi
100005c2f: 48 c1 e7 02                 	shlq	$2, %rdi
100005c33: e8 86 4c 00 00              	callq	19590 <dyld_stub_binder+0x10000a8be>
100005c38: 48 8b 0d 21 2f 02 00        	movq	143137(%rip), %rcx
100005c3f: 49 89 04 0f                 	movq	%rax, (%r15,%rcx)
100005c43: 44 0f af eb                 	imull	%ebx, %r13d
100005c47: 4c 8b 05 1a 2f 02 00        	movq	143130(%rip), %r8
100005c4e: 44 89 ea                    	movl	%r13d, %edx
100005c51: 83 ea 01                    	subl	$1, %edx
100005c54: 43 89 14 07                 	movl	%edx, (%r15,%r8)
100005c58: 0f 82 e9 00 00 00           	jb	233 <-[MlxWin pixel_management]+0x277>
100005c5e: 41 83 fd 08                 	cmpl	$8, %r13d
100005c62: 0f 82 b5 00 00 00           	jb	181 <-[MlxWin pixel_management]+0x24d>
100005c68: 45 89 e9                    	movl	%r13d, %r9d
100005c6b: 41 83 e1 f8                 	andl	$-8, %r9d
100005c6f: 41 8d 71 f8                 	leal	-8(%r9), %esi
100005c73: 41 89 f2                    	movl	%esi, %r10d
100005c76: 41 c1 ea 03                 	shrl	$3, %r10d
100005c7a: 41 ff c2                    	incl	%r10d
100005c7d: 45 89 d3                    	movl	%r10d, %r11d
100005c80: 41 83 e3 03                 	andl	$3, %r11d
100005c84: 31 c9                       	xorl	%ecx, %ecx
100005c86: 83 fe 18                    	cmpl	$24, %esi
100005c89: 72 5d                       	jb	93 <-[MlxWin pixel_management]+0x218>
100005c8b: 41 8d 75 e7                 	leal	-25(%r13), %esi
100005c8f: 44 89 df                    	movl	%r11d, %edi
100005c92: 44 29 d7                    	subl	%r10d, %edi
100005c95: 31 c9                       	xorl	%ecx, %ecx
100005c97: 0f 28 05 62 74 00 00        	movaps	29794(%rip), %xmm0
100005c9e: 66 90                       	nop
100005ca0: 8d 5e 18                    	leal	24(%rsi), %ebx
100005ca3: 48 63 db                    	movslq	%ebx, %rbx
100005ca6: 0f 11 44 98 f4              	movups	%xmm0, -12(%rax,%rbx,4)
100005cab: 0f 11 44 98 e4              	movups	%xmm0, -28(%rax,%rbx,4)
100005cb0: 8d 5e 10                    	leal	16(%rsi), %ebx
100005cb3: 48 63 db                    	movslq	%ebx, %rbx
100005cb6: 0f 11 44 98 f4              	movups	%xmm0, -12(%rax,%rbx,4)
100005cbb: 0f 11 44 98 e4              	movups	%xmm0, -28(%rax,%rbx,4)
100005cc0: 8d 5e 08                    	leal	8(%rsi), %ebx
100005cc3: 48 63 db                    	movslq	%ebx, %rbx
100005cc6: 0f 11 44 98 f4              	movups	%xmm0, -12(%rax,%rbx,4)
100005ccb: 0f 11 44 98 e4              	movups	%xmm0, -28(%rax,%rbx,4)
100005cd0: 48 63 f6                    	movslq	%esi, %rsi
100005cd3: 0f 11 44 b0 f4              	movups	%xmm0, -12(%rax,%rsi,4)
100005cd8: 0f 11 44 b0 e4              	movups	%xmm0, -28(%rax,%rsi,4)
100005cdd: 83 c1 20                    	addl	$32, %ecx
100005ce0: 83 c6 e0                    	addl	$-32, %esi
100005ce3: 83 c7 04                    	addl	$4, %edi
100005ce6: 75 b8                       	jne	-72 <-[MlxWin pixel_management]+0x1d0>
100005ce8: 45 85 db                    	testl	%r11d, %r11d
100005ceb: 74 28                       	je	40 <-[MlxWin pixel_management]+0x245>
100005ced: f7 d1                       	notl	%ecx
100005cef: 44 01 e9                    	addl	%r13d, %ecx
100005cf2: 41 f7 db                    	negl	%r11d
100005cf5: 0f 28 05 04 74 00 00        	movaps	29700(%rip), %xmm0
100005cfc: 0f 1f 40 00                 	nopl	(%rax)
100005d00: 48 63 c9                    	movslq	%ecx, %rcx
100005d03: 0f 11 44 88 f4              	movups	%xmm0, -12(%rax,%rcx,4)
100005d08: 0f 11 44 88 e4              	movups	%xmm0, -28(%rax,%rcx,4)
100005d0d: 83 c1 f8                    	addl	$-8, %ecx
100005d10: 41 ff c3                    	incl	%r11d
100005d13: 75 eb                       	jne	-21 <-[MlxWin pixel_management]+0x230>
100005d15: 44 29 ca                    	subl	%r9d, %edx
100005d18: 45 39 cd                    	cmpl	%r9d, %r13d
100005d1b: 74 26                       	je	38 <-[MlxWin pixel_management]+0x273>
100005d1d: 48 63 ca                    	movslq	%edx, %rcx
100005d20: f7 da                       	negl	%edx
100005d22: 48 8d 0c 88                 	leaq	(%rax,%rcx,4), %rcx
100005d26: 66 2e 0f 1f 84 00 00 00 00 00       	nopw	%cs:(%rax,%rax)
100005d30: c7 01 00 00 00 ff           	movl	$4278190080, (%rcx)
100005d36: ff c2                       	incl	%edx
100005d38: 48 83 c1 fc                 	addq	$-4, %rcx
100005d3c: 83 fa 01                    	cmpl	$1, %edx
100005d3f: 75 ef                       	jne	-17 <-[MlxWin pixel_management]+0x260>
100005d41: f7 da                       	negl	%edx
100005d43: 43 89 14 07                 	movl	%edx, (%r15,%r8)
100005d47: 43 c7 04 07 00 00 00 00     	movl	$0, (%r15,%r8)
100005d4f: 48 8b 0d e2 2d 02 00        	movq	142818(%rip), %rcx
100005d56: 41 8b 0c 0f                 	movl	(%r15,%rcx), %ecx
100005d5a: 47 8b 04 27                 	movl	(%r15,%r12), %r8d
100005d5e: 48 83 ec 08                 	subq	$8, %rsp
100005d62: 31 db                       	xorl	%ebx, %ebx
100005d64: bf e1 0d 00 00              	movl	$3553, %edi
100005d69: 31 f6                       	xorl	%esi, %esi
100005d6b: ba 58 80 00 00              	movl	$32856, %edx
100005d70: 45 31 c9                    	xorl	%r9d, %r9d
100005d73: 50                          	pushq	%rax
100005d74: 68 01 14 00 00              	pushq	$5121
100005d79: 68 e1 80 00 00              	pushq	$32993
100005d7e: e8 05 4b 00 00              	callq	19205 <dyld_stub_binder+0x10000a888>
100005d83: 48 83 c4 20                 	addq	$32, %rsp
100005d87: 4c 89 f7                    	movq	%r14, %rdi
100005d8a: e8 51 ee ff ff              	callq	-4527 <_mlx_shaders>
100005d8f: 85 c0                       	testl	%eax, %eax
100005d91: 0f 85 32 01 00 00           	jne	306 <-[MlxWin pixel_management]+0x3f9>
100005d97: 41 8b 7e 08                 	movl	8(%r14), %edi
100005d9b: e8 0c 4b 00 00              	callq	19212 <dyld_stub_binder+0x10000a8ac>
100005da0: 41 8b 7e 08                 	movl	8(%r14), %edi
100005da4: 48 8d 1d 5f 54 00 00        	leaq	21599(%rip), %rbx
100005dab: 48 89 de                    	movq	%rbx, %rsi
100005dae: e8 c3 4a 00 00              	callq	19139 <dyld_stub_binder+0x10000a876>
100005db3: 41 89 46 10                 	movl	%eax, 16(%r14)
100005db7: 41 8b 7e 08                 	movl	8(%r14), %edi
100005dbb: 4c 8d 3d 50 54 00 00        	leaq	21584(%rip), %r15
100005dc2: 4c 89 fe                    	movq	%r15, %rsi
100005dc5: e8 8e 4a 00 00              	callq	19086 <dyld_stub_binder+0x10000a858>
100005dca: 41 89 46 0c                 	movl	%eax, 12(%r14)
100005dce: 41 8b 7e 20                 	movl	32(%r14), %edi
100005dd2: e8 d5 4a 00 00              	callq	19157 <dyld_stub_binder+0x10000a8ac>
100005dd7: 41 8b 7e 20                 	movl	32(%r14), %edi
100005ddb: 48 89 de                    	movq	%rbx, %rsi
100005dde: e8 93 4a 00 00              	callq	19091 <dyld_stub_binder+0x10000a876>
100005de3: 41 89 46 2c                 	movl	%eax, 44(%r14)
100005de7: 41 8b 7e 20                 	movl	32(%r14), %edi
100005deb: 48 8d 35 29 54 00 00        	leaq	21545(%rip), %rsi
100005df2: e8 7f 4a 00 00              	callq	19071 <dyld_stub_binder+0x10000a876>
100005df7: 41 89 46 30                 	movl	%eax, 48(%r14)
100005dfb: 41 8b 7e 20                 	movl	32(%r14), %edi
100005dff: 48 8d 35 1e 54 00 00        	leaq	21534(%rip), %rsi
100005e06: e8 6b 4a 00 00              	callq	19051 <dyld_stub_binder+0x10000a876>
100005e0b: 41 89 46 34                 	movl	%eax, 52(%r14)
100005e0f: 41 8b 7e 20                 	movl	32(%r14), %edi
100005e13: 4c 8d 25 14 54 00 00        	leaq	21524(%rip), %r12
100005e1a: 4c 89 e6                    	movq	%r12, %rsi
100005e1d: e8 54 4a 00 00              	callq	19028 <dyld_stub_binder+0x10000a876>
100005e22: 41 89 46 28                 	movl	%eax, 40(%r14)
100005e26: 41 8b 7e 20                 	movl	32(%r14), %edi
100005e2a: 4c 89 fe                    	movq	%r15, %rsi
100005e2d: e8 26 4a 00 00              	callq	18982 <dyld_stub_binder+0x10000a858>
100005e32: 41 89 46 24                 	movl	%eax, 36(%r14)
100005e36: 41 8b 7e 40                 	movl	64(%r14), %edi
100005e3a: e8 6d 4a 00 00              	callq	19053 <dyld_stub_binder+0x10000a8ac>
100005e3f: 41 8b 7e 40                 	movl	64(%r14), %edi
100005e43: 48 89 de                    	movq	%rbx, %rsi
100005e46: e8 2b 4a 00 00              	callq	18987 <dyld_stub_binder+0x10000a876>
100005e4b: 41 89 46 4c                 	movl	%eax, 76(%r14)
100005e4f: 41 8b 7e 40                 	movl	64(%r14), %edi
100005e53: 48 8d 35 e0 53 00 00        	leaq	21472(%rip), %rsi
100005e5a: e8 17 4a 00 00              	callq	18967 <dyld_stub_binder+0x10000a876>
100005e5f: 41 89 46 50                 	movl	%eax, 80(%r14)
100005e63: 41 8b 7e 40                 	movl	64(%r14), %edi
100005e67: 48 8d 35 d2 53 00 00        	leaq	21458(%rip), %rsi
100005e6e: e8 03 4a 00 00              	callq	18947 <dyld_stub_binder+0x10000a876>
100005e73: 41 89 46 54                 	movl	%eax, 84(%r14)
100005e77: 41 8b 7e 40                 	movl	64(%r14), %edi
100005e7b: 48 8d 35 cb 53 00 00        	leaq	21451(%rip), %rsi
100005e82: e8 ef 49 00 00              	callq	18927 <dyld_stub_binder+0x10000a876>
100005e87: 41 89 46 58                 	movl	%eax, 88(%r14)
100005e8b: 41 8b 7e 40                 	movl	64(%r14), %edi
100005e8f: 48 8d 35 c6 53 00 00        	leaq	21446(%rip), %rsi
100005e96: e8 db 49 00 00              	callq	18907 <dyld_stub_binder+0x10000a876>
100005e9b: 41 89 46 5c                 	movl	%eax, 92(%r14)
100005e9f: 41 8b 7e 40                 	movl	64(%r14), %edi
100005ea3: 4c 89 e6                    	movq	%r12, %rsi
100005ea6: e8 cb 49 00 00              	callq	18891 <dyld_stub_binder+0x10000a876>
100005eab: 41 89 46 48                 	movl	%eax, 72(%r14)
100005eaf: 41 8b 7e 40                 	movl	64(%r14), %edi
100005eb3: 4c 89 fe                    	movq	%r15, %rsi
100005eb6: e8 9d 49 00 00              	callq	18845 <dyld_stub_binder+0x10000a858>
100005ebb: 41 89 46 44                 	movl	%eax, 68(%r14)
100005ebf: e8 82 49 00 00              	callq	18818 <dyld_stub_binder+0x10000a846>
100005ec4: bb 01 00 00 00              	movl	$1, %ebx
100005ec9: 89 d8                       	movl	%ebx, %eax
100005ecb: 48 83 c4 08                 	addq	$8, %rsp
100005ecf: 5b                          	popq	%rbx
100005ed0: 41 5c                       	popq	%r12
100005ed2: 41 5d                       	popq	%r13
100005ed4: 41 5e                       	popq	%r14
100005ed6: 41 5f                       	popq	%r15
100005ed8: 5d                          	popq	%rbp
100005ed9: c3                          	retq
100005eda: 66 0f 1f 44 00 00           	nopw	(%rax,%rax)

0000000100005ee0 -[MlxWin ctxNeedsUpdate]:
100005ee0: 55                          	pushq	%rbp
100005ee1: 48 89 e5                    	movq	%rsp, %rbp
100005ee4: 48 8b 05 85 2c 02 00        	movq	142469(%rip), %rax
100005eeb: 48 8b 3c 07                 	movq	(%rdi,%rax), %rdi
100005eef: 48 8b 35 da 2a 02 00        	movq	142042(%rip), %rsi
100005ef6: 5d                          	popq	%rbp
100005ef7: ff 25 33 e1 01 00           	jmpq	*123187(%rip)
100005efd: 0f 1f 00                    	nopl	(%rax)

0000000100005f00 -[MlxWin selectGLContext]:
100005f00: 55                          	pushq	%rbp
100005f01: 48 89 e5                    	movq	%rsp, %rbp
100005f04: 41 57                       	pushq	%r15
100005f06: 41 56                       	pushq	%r14
100005f08: 41 55                       	pushq	%r13
100005f0a: 41 54                       	pushq	%r12
100005f0c: 53                          	pushq	%rbx
100005f0d: 50                          	pushq	%rax
100005f0e: 49 89 ff                    	movq	%rdi, %r15
100005f11: 48 8b 3d a8 2b 02 00        	movq	142248(%rip), %rdi
100005f18: 48 8b 35 b9 2a 02 00        	movq	142009(%rip), %rsi
100005f1f: 4c 8b 2d 0a e1 01 00        	movq	123146(%rip), %r13
100005f26: 41 ff d5                    	callq	*%r13
100005f29: 48 89 c3                    	movq	%rax, %rbx
100005f2c: 4c 8b 35 55 2a 02 00        	movq	141909(%rip), %r14
100005f33: 4c 89 ff                    	movq	%r15, %rdi
100005f36: 4c 89 f6                    	movq	%r14, %rsi
100005f39: 4d 89 ec                    	movq	%r13, %r12
100005f3c: 41 ff d5                    	callq	*%r13
100005f3f: 48 39 c3                    	cmpq	%rax, %rbx
100005f42: 74 26                       	je	38 <-[MlxWin selectGLContext]+0x6a>
100005f44: 4c 89 ff                    	movq	%r15, %rdi
100005f47: 4c 89 f6                    	movq	%r14, %rsi
100005f4a: 41 ff d4                    	callq	*%r12
100005f4d: 48 8b 35 3c 2a 02 00        	movq	141884(%rip), %rsi
100005f54: 48 89 c7                    	movq	%rax, %rdi
100005f57: 4c 89 e0                    	movq	%r12, %rax
100005f5a: 48 83 c4 08                 	addq	$8, %rsp
100005f5e: 5b                          	popq	%rbx
100005f5f: 41 5c                       	popq	%r12
100005f61: 41 5d                       	popq	%r13
100005f63: 41 5e                       	popq	%r14
100005f65: 41 5f                       	popq	%r15
100005f67: 5d                          	popq	%rbp
100005f68: ff e0                       	jmpq	*%rax
100005f6a: 48 83 c4 08                 	addq	$8, %rsp
100005f6e: 5b                          	popq	%rbx
100005f6f: 41 5c                       	popq	%r12
100005f71: 41 5d                       	popq	%r13
100005f73: 41 5e                       	popq	%r14
100005f75: 41 5f                       	popq	%r15
100005f77: 5d                          	popq	%rbp
100005f78: c3                          	retq
100005f79: 0f 1f 80 00 00 00 00        	nopl	(%rax)

0000000100005f80 -[MlxWin flushGLContext]:
100005f80: 55                          	pushq	%rbp
100005f81: 48 89 e5                    	movq	%rsp, %rbp
100005f84: 53                          	pushq	%rbx
100005f85: 50                          	pushq	%rax
100005f86: 48 8b 35 fb 29 02 00        	movq	141819(%rip), %rsi
100005f8d: 48 8b 1d 9c e0 01 00        	movq	123036(%rip), %rbx
100005f94: ff d3                       	callq	*%rbx
100005f96: 48 8b 35 43 2a 02 00        	movq	141891(%rip), %rsi
100005f9d: 48 89 c7                    	movq	%rax, %rdi
100005fa0: 48 89 d8                    	movq	%rbx, %rax
100005fa3: 48 83 c4 08                 	addq	$8, %rsp
100005fa7: 5b                          	popq	%rbx
100005fa8: 5d                          	popq	%rbp
100005fa9: ff e0                       	jmpq	*%rax
100005fab: 0f 1f 44 00 00              	nopl	(%rax,%rax)

0000000100005fb0 -[MlxWin ctx]:
100005fb0: 55                          	pushq	%rbp
100005fb1: 48 89 e5                    	movq	%rsp, %rbp
100005fb4: 48 8b 05 b5 2b 02 00        	movq	142261(%rip), %rax
100005fbb: 48 8b 04 07                 	movq	(%rdi,%rax), %rax
100005fbf: 5d                          	popq	%rbp
100005fc0: c3                          	retq
100005fc1: 66 2e 0f 1f 84 00 00 00 00 00       	nopw	%cs:(%rax,%rax)
100005fcb: 0f 1f 44 00 00              	nopl	(%rax,%rax)

0000000100005fd0 -[MlxWin win]:
100005fd0: 55                          	pushq	%rbp
100005fd1: 48 89 e5                    	movq	%rsp, %rbp
100005fd4: 48 8b 05 55 2b 02 00        	movq	142165(%rip), %rax
100005fdb: 48 8b 04 07                 	movq	(%rdi,%rax), %rax
100005fdf: 5d                          	popq	%rbp
100005fe0: c3                          	retq
100005fe1: 66 2e 0f 1f 84 00 00 00 00 00       	nopw	%cs:(%rax,%rax)
100005feb: 0f 1f 44 00 00              	nopl	(%rax,%rax)

0000000100005ff0 -[MlxWin pixelPutColor:X:Y:]:
100005ff0: 55                          	pushq	%rbp
100005ff1: 48 89 e5                    	movq	%rsp, %rbp
100005ff4: 41 57                       	pushq	%r15
100005ff6: 41 56                       	pushq	%r14
100005ff8: 41 54                       	pushq	%r12
100005ffa: 53                          	pushq	%rbx
100005ffb: 48 83 ec 10                 	subq	$16, %rsp
100005fff: 48 89 fb                    	movq	%rdi, %rbx
100006002: 89 55 dc                    	movl	%edx, -36(%rbp)
100006005: 4c 8b 25 5c 2b 02 00        	movq	142172(%rip), %r12
10000600c: 42 ff 04 27                 	incl	(%rdi,%r12)
100006010: 45 89 c6                    	movl	%r8d, %r14d
100006013: 41 89 cf                    	movl	%ecx, %r15d
100006016: 48 8b 05 33 2b 02 00        	movq	142131(%rip), %rax
10000601d: 8b 34 07                    	movl	(%rdi,%rax), %esi
100006020: bf e1 0d 00 00              	movl	$3553, %edi
100006025: e8 b0 47 00 00              	callq	18352 <dyld_stub_binder+0x10000a7da>
10000602a: 48 83 ec 08                 	subq	$8, %rsp
10000602e: 48 8d 45 dc                 	leaq	-36(%rbp), %rax
100006032: bf e1 0d 00 00              	movl	$3553, %edi
100006037: 31 f6                       	xorl	%esi, %esi
100006039: 44 89 fa                    	movl	%r15d, %edx
10000603c: 44 89 f1                    	movl	%r14d, %ecx
10000603f: 41 b8 01 00 00 00           	movl	$1, %r8d
100006045: 41 b9 01 00 00 00           	movl	$1, %r9d
10000604b: 50                          	pushq	%rax
10000604c: 68 01 14 00 00              	pushq	$5121
100006051: 68 e1 80 00 00              	pushq	$32993
100006056: e8 39 48 00 00              	callq	18489 <dyld_stub_binder+0x10000a894>
10000605b: 48 83 c4 20                 	addq	$32, %rsp
10000605f: 42 81 3c 23 40 0d 03 00     	cmpl	$200000, (%rbx,%r12)
100006067: 7c 10                       	jl	16 <-[MlxWin pixelPutColor:X:Y:]+0x89>
100006069: 48 8b 35 78 29 02 00        	movq	141688(%rip), %rsi
100006070: 48 89 df                    	movq	%rbx, %rdi
100006073: ff 15 b7 df 01 00           	callq	*122807(%rip)
100006079: 48 83 c4 10                 	addq	$16, %rsp
10000607d: 5b                          	popq	%rbx
10000607e: 41 5c                       	popq	%r12
100006080: 41 5e                       	popq	%r14
100006082: 41 5f                       	popq	%r15
100006084: 5d                          	popq	%rbp
100006085: c3                          	retq
100006086: 66 2e 0f 1f 84 00 00 00 00 00       	nopw	%cs:(%rax,%rax)

0000000100006090 -[MlxWin destroyPixelManagement]:
100006090: 55                          	pushq	%rbp
100006091: 48 89 e5                    	movq	%rsp, %rbp
100006094: 41 56                       	pushq	%r14
100006096: 53                          	pushq	%rbx
100006097: 48 89 fb                    	movq	%rdi, %rbx
10000609a: 48 8b 05 bf 2a 02 00        	movq	142015(%rip), %rax
1000060a1: 48 8b 3c 07                 	movq	(%rdi,%rax), %rdi
1000060a5: e8 12 47 00 00              	callq	18194 <dyld_stub_binder+0x10000a7bc>
1000060aa: 48 8b 35 df 29 02 00        	movq	141791(%rip), %rsi
1000060b1: 48 89 df                    	movq	%rbx, %rdi
1000060b4: ff 15 76 df 01 00           	callq	*122742(%rip)
1000060ba: 48 8b 35 8f 2a 02 00        	movq	141967(%rip), %rsi
1000060c1: 48 01 de                    	addq	%rbx, %rsi
1000060c4: bf 01 00 00 00              	movl	$1, %edi
1000060c9: e8 42 47 00 00              	callq	18242 <dyld_stub_binder+0x10000a810>
1000060ce: 48 8b 35 83 2a 02 00        	movq	141955(%rip), %rsi
1000060d5: 48 01 de                    	addq	%rbx, %rsi
1000060d8: bf 01 00 00 00              	movl	$1, %edi
1000060dd: e8 40 47 00 00              	callq	18240 <dyld_stub_binder+0x10000a822>
1000060e2: 4c 8b 35 5f 2a 02 00        	movq	141919(%rip), %r14
1000060e9: 42 8b 7c 33 08              	movl	8(%rbx,%r14), %edi
1000060ee: e8 23 47 00 00              	callq	18211 <dyld_stub_binder+0x10000a816>
1000060f3: 42 8b 7c 33 20              	movl	32(%rbx,%r14), %edi
1000060f8: e8 19 47 00 00              	callq	18201 <dyld_stub_binder+0x10000a816>
1000060fd: 42 8b 3c 33                 	movl	(%rbx,%r14), %edi
100006101: e8 16 47 00 00              	callq	18198 <dyld_stub_binder+0x10000a81c>
100006106: 42 8b 7c 33 04              	movl	4(%rbx,%r14), %edi
10000610b: e8 0c 47 00 00              	callq	18188 <dyld_stub_binder+0x10000a81c>
100006110: 42 8b 7c 33 18              	movl	24(%rbx,%r14), %edi
100006115: e8 02 47 00 00              	callq	18178 <dyld_stub_binder+0x10000a81c>
10000611a: 42 8b 7c 33 1c              	movl	28(%rbx,%r14), %edi
10000611f: 5b                          	popq	%rbx
100006120: 41 5e                       	popq	%r14
100006122: 5d                          	popq	%rbp
100006123: e9 f4 46 00 00              	jmp	18164 <dyld_stub_binder+0x10000a81c>
100006128: 0f 1f 84 00 00 00 00 00     	nopl	(%rax,%rax)

0000000100006130 -[MlxWin destroyMe]:
100006130: 55                          	pushq	%rbp
100006131: 48 89 e5                    	movq	%rsp, %rbp
100006134: 41 57                       	pushq	%r15
100006136: 41 56                       	pushq	%r14
100006138: 41 55                       	pushq	%r13
10000613a: 41 54                       	pushq	%r12
10000613c: 53                          	pushq	%rbx
10000613d: 50                          	pushq	%rax
10000613e: 48 89 fb                    	movq	%rdi, %rbx
100006141: 48 8b 3d 70 29 02 00        	movq	141680(%rip), %rdi
100006148: 4c 8b 35 61 28 02 00        	movq	141409(%rip), %r14
10000614f: 4c 8b 25 da de 01 00        	movq	122586(%rip), %r12
100006156: 4c 89 f6                    	movq	%r14, %rsi
100006159: 41 ff d4                    	callq	*%r12
10000615c: 4c 8b 2d cd 29 02 00        	movq	141773(%rip), %r13
100006163: 4a 8b 14 2b                 	movq	(%rbx,%r13), %rdx
100006167: 4c 8b 3d 82 28 02 00        	movq	141442(%rip), %r15
10000616e: 48 89 c7                    	movq	%rax, %rdi
100006171: 4c 89 fe                    	movq	%r15, %rsi
100006174: 41 ff d4                    	callq	*%r12
100006177: 48 8b 3d 3a 29 02 00        	movq	141626(%rip), %rdi
10000617e: 4c 89 f6                    	movq	%r14, %rsi
100006181: 41 ff d4                    	callq	*%r12
100006184: 48 89 c7                    	movq	%rax, %rdi
100006187: 4c 89 fe                    	movq	%r15, %rsi
10000618a: 48 89 da                    	movq	%rbx, %rdx
10000618d: 41 ff d4                    	callq	*%r12
100006190: 4a 8b 3c 2b                 	movq	(%rbx,%r13), %rdi
100006194: 48 8b 35 5d 28 02 00        	movq	141405(%rip), %rsi
10000619b: 41 ff d4                    	callq	*%r12
10000619e: 48 89 df                    	movq	%rbx, %rdi
1000061a1: 48 83 c4 08                 	addq	$8, %rsp
1000061a5: 5b                          	popq	%rbx
1000061a6: 41 5c                       	popq	%r12
1000061a8: 41 5d                       	popq	%r13
1000061aa: 41 5e                       	popq	%r14
1000061ac: 41 5f                       	popq	%r15
1000061ae: 5d                          	popq	%rbp
1000061af: ff 25 83 de 01 00           	jmpq	*122499(%rip)
1000061b5: 66 2e 0f 1f 84 00 00 00 00 00       	nopw	%cs:(%rax,%rax)
1000061bf: 90                          	nop

00000001000061c0 -[MlxWin setEvent:andFunc:andParam:]:
1000061c0: 55                          	pushq	%rbp
1000061c1: 48 89 e5                    	movq	%rsp, %rbp
1000061c4: 48 8b 05 65 29 02 00        	movq	141669(%rip), %rax
1000061cb: 48 8b 3c 07                 	movq	(%rdi,%rax), %rdi
1000061cf: 48 8b 35 2a 28 02 00        	movq	141354(%rip), %rsi
1000061d6: 5d                          	popq	%rbp
1000061d7: ff 25 53 de 01 00           	jmpq	*122451(%rip)
1000061dd: 0f 1f 00                    	nopl	(%rax)

00000001000061e0 -[MlxWin setKeyRepeat:]:
1000061e0: 55                          	pushq	%rbp
1000061e1: 48 89 e5                    	movq	%rsp, %rbp
1000061e4: 48 8b 05 45 29 02 00        	movq	141637(%rip), %rax
1000061eb: 48 8b 3c 07                 	movq	(%rdi,%rax), %rdi
1000061ef: 48 8b 35 82 27 02 00        	movq	141186(%rip), %rsi
1000061f6: 5d                          	popq	%rbp
1000061f7: ff 25 33 de 01 00           	jmpq	*122419(%rip)
1000061fd: 0f 1f 00                    	nopl	(%rax)

0000000100006200 -[MlxWin clearWin]:
100006200: 55                          	pushq	%rbp
100006201: 48 89 e5                    	movq	%rsp, %rbp
100006204: 0f 57 c0                    	xorps	%xmm0, %xmm0
100006207: 0f 57 c9                    	xorps	%xmm1, %xmm1
10000620a: 0f 57 d2                    	xorps	%xmm2, %xmm2
10000620d: 0f 57 db                    	xorps	%xmm3, %xmm3
100006210: e8 e3 45 00 00              	callq	17891 <dyld_stub_binder+0x10000a7f8>
100006215: bf 00 40 00 00              	movl	$16384, %edi
10000621a: 5d                          	popq	%rbp
10000621b: e9 d2 45 00 00              	jmp	17874 <dyld_stub_binder+0x10000a7f2>

0000000100006220 -[MlxWin mlx_gl_draw_img:andCtx:andX:andY:]:
100006220: 55                          	pushq	%rbp
100006221: 48 89 e5                    	movq	%rsp, %rbp
100006224: 41 57                       	pushq	%r15
100006226: 41 56                       	pushq	%r14
100006228: 41 55                       	pushq	%r13
10000622a: 41 54                       	pushq	%r12
10000622c: 53                          	pushq	%rbx
10000622d: 48 83 ec 18                 	subq	$24, %rsp
100006231: 44 89 4d d0                 	movl	%r9d, -48(%rbp)
100006235: 44 89 45 d4                 	movl	%r8d, -44(%rbp)
100006239: 49 89 cf                    	movq	%rcx, %r15
10000623c: 48 89 55 c8                 	movq	%rdx, -56(%rbp)
100006240: 48 89 fb                    	movq	%rdi, %rbx
100006243: 48 8b 05 1e 29 02 00        	movq	141598(%rip), %rax
10000624a: 83 3c 07 00                 	cmpl	$0, (%rdi,%rax)
10000624e: 7e 10                       	jle	16 <-[MlxWin mlx_gl_draw_img:andCtx:andX:andY:]+0x40>
100006250: 48 8b 35 91 27 02 00        	movq	141201(%rip), %rsi
100006257: 48 89 df                    	movq	%rbx, %rdi
10000625a: ff 15 d0 dd 01 00           	callq	*122320(%rip)
100006260: 4c 8b 25 e1 28 02 00        	movq	141537(%rip), %r12
100006267: 42 8b 7c 23 20              	movl	32(%rbx,%r12), %edi
10000626c: e8 3b 46 00 00              	callq	17979 <dyld_stub_binder+0x10000a8ac>
100006271: bf c0 84 00 00              	movl	$33984, %edi
100006276: e8 4d 45 00 00              	callq	17741 <dyld_stub_binder+0x10000a7c8>
10000627b: 41 8b 37                    	movl	(%r15), %esi
10000627e: bf e1 0d 00 00              	movl	$3553, %edi
100006283: e8 52 45 00 00              	callq	17746 <dyld_stub_binder+0x10000a7da>
100006288: 42 8b 7c 23 2c              	movl	44(%rbx,%r12), %edi
10000628d: 45 31 ed                    	xorl	%r13d, %r13d
100006290: 31 f6                       	xorl	%esi, %esi
100006292: e8 03 46 00 00              	callq	17923 <dyld_stub_binder+0x10000a89a>
100006297: 42 8b 7c 23 28              	movl	40(%rbx,%r12), %edi
10000629c: 48 8b 05 95 28 02 00        	movq	141461(%rip), %rax
1000062a3: 8b 04 03                    	movl	(%rbx,%rax), %eax
1000062a6: 89 c1                       	movl	%eax, %ecx
1000062a8: c1 e9 1f                    	shrl	$31, %ecx
1000062ab: 01 c1                       	addl	%eax, %ecx
1000062ad: d1 f9                       	sarl	%ecx
1000062af: f3 0f 2a c1                 	cvtsi2ss	%ecx, %xmm0
1000062b3: 4c 8b 35 86 28 02 00        	movq	141446(%rip), %r14
1000062ba: 42 8b 04 33                 	movl	(%rbx,%r14), %eax
1000062be: 89 c1                       	movl	%eax, %ecx
1000062c0: c1 e9 1f                    	shrl	$31, %ecx
1000062c3: 01 c1                       	addl	%eax, %ecx
1000062c5: d1 f9                       	sarl	%ecx
1000062c7: f3 0f 2a c9                 	cvtsi2ss	%ecx, %xmm1
1000062cb: e8 d0 45 00 00              	callq	17872 <dyld_stub_binder+0x10000a8a0>
1000062d0: 42 8b 7c 23 30              	movl	48(%rbx,%r12), %edi
1000062d5: 0f 57 c0                    	xorps	%xmm0, %xmm0
1000062d8: f3 0f 2a 45 d4              	cvtsi2ssl	-44(%rbp), %xmm0
1000062dd: 42 8b 04 33                 	movl	(%rbx,%r14), %eax
1000062e1: 2b 45 d0                    	subl	-48(%rbp), %eax
1000062e4: 0f 57 c9                    	xorps	%xmm1, %xmm1
1000062e7: f3 0f 2a c8                 	cvtsi2ss	%eax, %xmm1
1000062eb: e8 b0 45 00 00              	callq	17840 <dyld_stub_binder+0x10000a8a0>
1000062f0: 48 8b 45 c8                 	movq	-56(%rbp), %rax
1000062f4: 0f 57 c0                    	xorps	%xmm0, %xmm0
1000062f7: f3 0f 2a 00                 	cvtsi2ssl	(%rax), %xmm0
1000062fb: 44 2b 68 04                 	subl	4(%rax), %r13d
1000062ff: 42 8b 7c 23 34              	movl	52(%rbx,%r12), %edi
100006304: 0f 57 c9                    	xorps	%xmm1, %xmm1
100006307: f3 41 0f 2a cd              	cvtsi2ss	%r13d, %xmm1
10000630c: e8 8f 45 00 00              	callq	17807 <dyld_stub_binder+0x10000a8a0>
100006311: 41 8b 77 04                 	movl	4(%r15), %esi
100006315: bf 92 88 00 00              	movl	$34962, %edi
10000631a: e8 b5 44 00 00              	callq	17589 <dyld_stub_binder+0x10000a7d4>
10000631f: bf 00 00 00 00              	movl	$0, %edi
100006324: be 02 00 00 00              	movl	$2, %esi
100006329: ba 06 14 00 00              	movl	$5126, %edx
10000632e: 31 c9                       	xorl	%ecx, %ecx
100006330: 41 b8 08 00 00 00           	movl	$8, %r8d
100006336: 45 31 c9                    	xorl	%r9d, %r9d
100006339: e8 74 45 00 00              	callq	17780 <dyld_stub_binder+0x10000a8b2>
10000633e: 31 ff                       	xorl	%edi, %edi
100006340: e8 fb 44 00 00              	callq	17659 <dyld_stub_binder+0x10000a840>
100006345: bf e2 0b 00 00              	movl	$3042, %edi
10000634a: e8 eb 44 00 00              	callq	17643 <dyld_stub_binder+0x10000a83a>
10000634f: bf 03 03 00 00              	movl	$771, %edi
100006354: be 02 03 00 00              	movl	$770, %esi
100006359: e8 88 44 00 00              	callq	17544 <dyld_stub_binder+0x10000a7e6>
10000635e: bf 06 80 00 00              	movl	$32774, %edi
100006363: e8 78 44 00 00              	callq	17528 <dyld_stub_binder+0x10000a7e0>
100006368: bf 06 00 00 00              	movl	$6, %edi
10000636d: 31 f6                       	xorl	%esi, %esi
10000636f: ba 04 00 00 00              	movl	$4, %edx
100006374: e8 bb 44 00 00              	callq	17595 <dyld_stub_binder+0x10000a834>
100006379: 31 ff                       	xorl	%edi, %edi
10000637b: 48 83 c4 18                 	addq	$24, %rsp
10000637f: 5b                          	popq	%rbx
100006380: 41 5c                       	popq	%r12
100006382: 41 5d                       	popq	%r13
100006384: 41 5e                       	popq	%r14
100006386: 41 5f                       	popq	%r15
100006388: 5d                          	popq	%rbp
100006389: e9 a0 44 00 00              	jmp	17568 <dyld_stub_binder+0x10000a82e>
10000638e: 66 90                       	nop

0000000100006390 -[MlxWin mlx_gl_draw_font:andCtx:andX:andY:andColor:glyphX:glyphY:]:
100006390: 55                          	pushq	%rbp
100006391: 48 89 e5                    	movq	%rsp, %rbp
100006394: 41 57                       	pushq	%r15
100006396: 41 56                       	pushq	%r14
100006398: 41 55                       	pushq	%r13
10000639a: 41 54                       	pushq	%r12
10000639c: 53                          	pushq	%rbx
10000639d: 48 83 ec 28                 	subq	$40, %rsp
1000063a1: 45 89 cc                    	movl	%r9d, %r12d
1000063a4: 44 89 45 bc                 	movl	%r8d, -68(%rbp)
1000063a8: 49 89 ce                    	movq	%rcx, %r14
1000063ab: 48 89 55 b0                 	movq	%rdx, -80(%rbp)
1000063af: 48 89 fb                    	movq	%rdi, %rbx
1000063b2: 8b 4d 10                    	movl	16(%rbp), %ecx
1000063b5: 48 8b 05 54 dc 01 00        	movq	121940(%rip), %rax
1000063bc: 48 8b 00                    	movq	(%rax), %rax
1000063bf: 48 89 45 d0                 	movq	%rax, -48(%rbp)
1000063c3: 48 8b 05 9e 27 02 00        	movq	141214(%rip), %rax
1000063ca: 83 3c 07 00                 	cmpl	$0, (%rdi,%rax)
1000063ce: 7e 16                       	jle	22 <-[MlxWin mlx_gl_draw_font:andCtx:andX:andY:andColor:glyphX:glyphY:]+0x56>
1000063d0: 48 8b 35 11 26 02 00        	movq	140817(%rip), %rsi
1000063d7: 48 89 df                    	movq	%rbx, %rdi
1000063da: 41 89 cf                    	movl	%ecx, %r15d
1000063dd: ff 15 4d dc 01 00           	callq	*121933(%rip)
1000063e3: 44 89 f9                    	movl	%r15d, %ecx
1000063e6: 89 c8                       	movl	%ecx, %eax
1000063e8: c1 e8 10                    	shrl	$16, %eax
1000063eb: 0f b6 c0                    	movzbl	%al, %eax
1000063ee: f3 0f 2a c0                 	cvtsi2ss	%eax, %xmm0
1000063f2: f3 0f 10 0d 26 6d 00 00     	movss	27942(%rip), %xmm1
1000063fa: f3 0f 5e c1                 	divss	%xmm1, %xmm0
1000063fe: 0f b6 c5                    	movzbl	%ch, %eax
100006401: f3 0f 2a d0                 	cvtsi2ss	%eax, %xmm2
100006405: f3 0f 11 45 c0              	movss	%xmm0, -64(%rbp)
10000640a: f3 0f 5e d1                 	divss	%xmm1, %xmm2
10000640e: f3 0f 11 55 c4              	movss	%xmm2, -60(%rbp)
100006413: 0f b6 c1                    	movzbl	%cl, %eax
100006416: 0f 57 c0                    	xorps	%xmm0, %xmm0
100006419: f3 0f 2a c0                 	cvtsi2ss	%eax, %xmm0
10000641d: f3 0f 5e c1                 	divss	%xmm1, %xmm0
100006421: f3 0f 11 45 c8              	movss	%xmm0, -56(%rbp)
100006426: c7 45 cc 00 00 80 3f        	movl	$1065353216, -52(%rbp)
10000642d: 4c 8b 2d 14 27 02 00        	movq	141076(%rip), %r13
100006434: 42 8b 7c 2b 40              	movl	64(%rbx,%r13), %edi
100006439: e8 6e 44 00 00              	callq	17518 <dyld_stub_binder+0x10000a8ac>
10000643e: bf c0 84 00 00              	movl	$33984, %edi
100006443: e8 80 43 00 00              	callq	17280 <dyld_stub_binder+0x10000a7c8>
100006448: 41 8b 36                    	movl	(%r14), %esi
10000644b: bf e1 0d 00 00              	movl	$3553, %edi
100006450: e8 85 43 00 00              	callq	17285 <dyld_stub_binder+0x10000a7da>
100006455: 42 8b 7c 2b 4c              	movl	76(%rbx,%r13), %edi
10000645a: 31 f6                       	xorl	%esi, %esi
10000645c: e8 39 44 00 00              	callq	17465 <dyld_stub_binder+0x10000a89a>
100006461: 42 8b 7c 2b 50              	movl	80(%rbx,%r13), %edi
100006466: 48 8d 55 c0                 	leaq	-64(%rbp), %rdx
10000646a: be 01 00 00 00              	movl	$1, %esi
10000646f: e8 32 44 00 00              	callq	17458 <dyld_stub_binder+0x10000a8a6>
100006474: 42 8b 7c 2b 48              	movl	72(%rbx,%r13), %edi
100006479: 48 8b 05 b8 26 02 00        	movq	140984(%rip), %rax
100006480: 8b 04 03                    	movl	(%rbx,%rax), %eax
100006483: 89 c1                       	movl	%eax, %ecx
100006485: c1 e9 1f                    	shrl	$31, %ecx
100006488: 01 c1                       	addl	%eax, %ecx
10000648a: d1 f9                       	sarl	%ecx
10000648c: 0f 57 c0                    	xorps	%xmm0, %xmm0
10000648f: f3 0f 2a c1                 	cvtsi2ss	%ecx, %xmm0
100006493: 4d 89 f7                    	movq	%r14, %r15
100006496: 4c 8b 35 a3 26 02 00        	movq	140963(%rip), %r14
10000649d: 42 8b 04 33                 	movl	(%rbx,%r14), %eax
1000064a1: 89 c1                       	movl	%eax, %ecx
1000064a3: c1 e9 1f                    	shrl	$31, %ecx
1000064a6: 01 c1                       	addl	%eax, %ecx
1000064a8: d1 f9                       	sarl	%ecx
1000064aa: 0f 57 c9                    	xorps	%xmm1, %xmm1
1000064ad: f3 0f 2a c9                 	cvtsi2ss	%ecx, %xmm1
1000064b1: e8 ea 43 00 00              	callq	17386 <dyld_stub_binder+0x10000a8a0>
1000064b6: 0f 57 c0                    	xorps	%xmm0, %xmm0
1000064b9: f3 0f 2a 45 bc              	cvtsi2ssl	-68(%rbp), %xmm0
1000064be: 41 f7 d4                    	notl	%r12d
1000064c1: 46 03 24 33                 	addl	(%rbx,%r14), %r12d
1000064c5: 42 8b 7c 2b 54              	movl	84(%rbx,%r13), %edi
1000064ca: 0f 57 c9                    	xorps	%xmm1, %xmm1
1000064cd: f3 41 0f 2a cc              	cvtsi2ss	%r12d, %xmm1
1000064d2: e8 c9 43 00 00              	callq	17353 <dyld_stub_binder+0x10000a8a0>
1000064d7: 0f 57 c0                    	xorps	%xmm0, %xmm0
1000064da: f3 0f 2a 45 18              	cvtsi2ssl	24(%rbp), %xmm0
1000064df: 42 8b 7c 2b 58              	movl	88(%rbx,%r13), %edi
1000064e4: 0f 57 c9                    	xorps	%xmm1, %xmm1
1000064e7: f3 0f 2a 4d 20              	cvtsi2ssl	32(%rbp), %xmm1
1000064ec: e8 af 43 00 00              	callq	17327 <dyld_stub_binder+0x10000a8a0>
1000064f1: 48 8b 45 b0                 	movq	-80(%rbp), %rax
1000064f5: 0f 57 c0                    	xorps	%xmm0, %xmm0
1000064f8: f3 0f 2a 00                 	cvtsi2ssl	(%rax), %xmm0
1000064fc: 42 8b 7c 2b 5c              	movl	92(%rbx,%r13), %edi
100006501: 0f 57 c9                    	xorps	%xmm1, %xmm1
100006504: f3 0f 2a 48 04              	cvtsi2ssl	4(%rax), %xmm1
100006509: e8 92 43 00 00              	callq	17298 <dyld_stub_binder+0x10000a8a0>
10000650e: 41 8b 77 04                 	movl	4(%r15), %esi
100006512: bf 92 88 00 00              	movl	$34962, %edi
100006517: e8 b8 42 00 00              	callq	17080 <dyld_stub_binder+0x10000a7d4>
10000651c: bf 00 00 00 00              	movl	$0, %edi
100006521: be 02 00 00 00              	movl	$2, %esi
100006526: ba 06 14 00 00              	movl	$5126, %edx
10000652b: 31 c9                       	xorl	%ecx, %ecx
10000652d: 41 b8 08 00 00 00           	movl	$8, %r8d
100006533: 45 31 c9                    	xorl	%r9d, %r9d
100006536: e8 77 43 00 00              	callq	17271 <dyld_stub_binder+0x10000a8b2>
10000653b: 31 ff                       	xorl	%edi, %edi
10000653d: e8 fe 42 00 00              	callq	17150 <dyld_stub_binder+0x10000a840>
100006542: bf e2 0b 00 00              	movl	$3042, %edi
100006547: e8 ee 42 00 00              	callq	17134 <dyld_stub_binder+0x10000a83a>
10000654c: bf 03 03 00 00              	movl	$771, %edi
100006551: be 02 03 00 00              	movl	$770, %esi
100006556: e8 8b 42 00 00              	callq	17035 <dyld_stub_binder+0x10000a7e6>
10000655b: bf 06 80 00 00              	movl	$32774, %edi
100006560: e8 7b 42 00 00              	callq	17019 <dyld_stub_binder+0x10000a7e0>
100006565: bf 06 00 00 00              	movl	$6, %edi
10000656a: 31 f6                       	xorl	%esi, %esi
10000656c: ba 04 00 00 00              	movl	$4, %edx
100006571: e8 be 42 00 00              	callq	17086 <dyld_stub_binder+0x10000a834>
100006576: 31 ff                       	xorl	%edi, %edi
100006578: e8 b1 42 00 00              	callq	17073 <dyld_stub_binder+0x10000a82e>
10000657d: 48 8b 05 8c da 01 00        	movq	121484(%rip), %rax
100006584: 48 8b 00                    	movq	(%rax), %rax
100006587: 48 3b 45 d0                 	cmpq	-48(%rbp), %rax
10000658b: 75 0f                       	jne	15 <-[MlxWin mlx_gl_draw_font:andCtx:andX:andY:andColor:glyphX:glyphY:]+0x20c>
10000658d: 48 83 c4 28                 	addq	$40, %rsp
100006591: 5b                          	popq	%rbx
100006592: 41 5c                       	popq	%r12
100006594: 41 5d                       	popq	%r13
100006596: 41 5e                       	popq	%r14
100006598: 41 5f                       	popq	%r15
10000659a: 5d                          	popq	%rbp
10000659b: c3                          	retq
10000659c: e8 fd 41 00 00              	callq	16893 <dyld_stub_binder+0x10000a79e>
1000065a1: 66 2e 0f 1f 84 00 00 00 00 00       	nopw	%cs:(%rax,%rax)
1000065ab: 0f 1f 44 00 00              	nopl	(%rax,%rax)

00000001000065b0 -[MlxWin mlx_gl_draw]:
1000065b0: 55                          	pushq	%rbp
1000065b1: 48 89 e5                    	movq	%rsp, %rbp
1000065b4: 41 57                       	pushq	%r15
1000065b6: 41 56                       	pushq	%r14
1000065b8: 41 54                       	pushq	%r12
1000065ba: 53                          	pushq	%rbx
1000065bb: 4c 8b 35 a6 25 02 00        	movq	140710(%rip), %r14
1000065c2: 42 83 3c 37 00              	cmpl	$0, (%rdi,%r14)
1000065c7: 0f 8e 32 01 00 00           	jle	306 <-[MlxWin mlx_gl_draw]+0x14f>
1000065cd: 48 89 fb                    	movq	%rdi, %rbx
1000065d0: 4c 8b 3d 71 25 02 00        	movq	140657(%rip), %r15
1000065d7: 42 8b 7c 3f 08              	movl	8(%rdi,%r15), %edi
1000065dc: e8 cb 42 00 00              	callq	17099 <dyld_stub_binder+0x10000a8ac>
1000065e1: bf c0 84 00 00              	movl	$33984, %edi
1000065e6: e8 dd 41 00 00              	callq	16861 <dyld_stub_binder+0x10000a7c8>
1000065eb: 4c 8b 25 5e 25 02 00        	movq	140638(%rip), %r12
1000065f2: 42 8b 34 23                 	movl	(%rbx,%r12), %esi
1000065f6: bf e1 0d 00 00              	movl	$3553, %edi
1000065fb: e8 da 41 00 00              	callq	16858 <dyld_stub_binder+0x10000a7da>
100006600: 42 8b 7c 3b 10              	movl	16(%rbx,%r15), %edi
100006605: 31 f6                       	xorl	%esi, %esi
100006607: e8 8e 42 00 00              	callq	17038 <dyld_stub_binder+0x10000a89a>
10000660c: 42 8b 34 23                 	movl	(%rbx,%r12), %esi
100006610: bf 92 88 00 00              	movl	$34962, %edi
100006615: e8 ba 41 00 00              	callq	16826 <dyld_stub_binder+0x10000a7d4>
10000661a: bf 00 00 00 00              	movl	$0, %edi
10000661f: be 02 00 00 00              	movl	$2, %esi
100006624: ba 06 14 00 00              	movl	$5126, %edx
100006629: 31 c9                       	xorl	%ecx, %ecx
10000662b: 41 b8 08 00 00 00           	movl	$8, %r8d
100006631: 45 31 c9                    	xorl	%r9d, %r9d
100006634: e8 79 42 00 00              	callq	17017 <dyld_stub_binder+0x10000a8b2>
100006639: 31 ff                       	xorl	%edi, %edi
10000663b: e8 00 42 00 00              	callq	16896 <dyld_stub_binder+0x10000a840>
100006640: bf e2 0b 00 00              	movl	$3042, %edi
100006645: e8 f0 41 00 00              	callq	16880 <dyld_stub_binder+0x10000a83a>
10000664a: bf 03 03 00 00              	movl	$771, %edi
10000664f: be 02 03 00 00              	movl	$770, %esi
100006654: e8 8d 41 00 00              	callq	16781 <dyld_stub_binder+0x10000a7e6>
100006659: bf 06 80 00 00              	movl	$32774, %edi
10000665e: e8 7d 41 00 00              	callq	16765 <dyld_stub_binder+0x10000a7e0>
100006663: bf 06 00 00 00              	movl	$6, %edi
100006668: 31 f6                       	xorl	%esi, %esi
10000666a: ba 04 00 00 00              	movl	$4, %edx
10000666f: e8 c0 41 00 00              	callq	16832 <dyld_stub_binder+0x10000a834>
100006674: 31 ff                       	xorl	%edi, %edi
100006676: e8 b3 41 00 00              	callq	16819 <dyld_stub_binder+0x10000a82e>
10000667b: 48 8b 0d b6 24 02 00        	movq	140470(%rip), %rcx
100006682: 48 8b 15 b7 24 02 00        	movq	140471(%rip), %rdx
100006689: 8b 34 13                    	movl	(%rbx,%rdx), %esi
10000668c: 0f af 34 0b                 	imull	(%rbx,%rcx), %esi
100006690: 48 8b 05 c9 24 02 00        	movq	140489(%rip), %rax
100006697: 83 ee 01                    	subl	$1, %esi
10000669a: 42 89 34 33                 	movl	%esi, (%rbx,%r14)
10000669e: 72 27                       	jb	39 <-[MlxWin mlx_gl_draw]+0x117>
1000066a0: 48 8b 3c 03                 	movq	(%rbx,%rax), %rdi
1000066a4: 66 2e 0f 1f 84 00 00 00 00 00       	nopw	%cs:(%rax,%rax)
1000066ae: 66 90                       	nop
1000066b0: 48 63 f6                    	movslq	%esi, %rsi
1000066b3: c7 04 b7 00 00 00 ff        	movl	$4278190080, (%rdi,%rsi,4)
1000066ba: 42 8b 34 33                 	movl	(%rbx,%r14), %esi
1000066be: 83 ee 01                    	subl	$1, %esi
1000066c1: 42 89 34 33                 	movl	%esi, (%rbx,%r14)
1000066c5: 73 e9                       	jae	-23 <-[MlxWin mlx_gl_draw]+0x100>
1000066c7: 8b 0c 0b                    	movl	(%rbx,%rcx), %ecx
1000066ca: 44 8b 04 13                 	movl	(%rbx,%rdx), %r8d
1000066ce: 48 83 ec 08                 	subq	$8, %rsp
1000066d2: bf e1 0d 00 00              	movl	$3553, %edi
1000066d7: 31 f6                       	xorl	%esi, %esi
1000066d9: ba 58 80 00 00              	movl	$32856, %edx
1000066de: 45 31 c9                    	xorl	%r9d, %r9d
1000066e1: ff 34 03                    	pushq	(%rbx,%rax)
1000066e4: 68 01 14 00 00              	pushq	$5121
1000066e9: 68 e1 80 00 00              	pushq	$32993
1000066ee: e8 95 41 00 00              	callq	16789 <dyld_stub_binder+0x10000a888>
1000066f3: 48 83 c4 20                 	addq	$32, %rsp
1000066f7: 42 c7 04 33 00 00 00 00     	movl	$0, (%rbx,%r14)
1000066ff: 5b                          	popq	%rbx
100006700: 41 5c                       	popq	%r12
100006702: 41 5e                       	popq	%r14
100006704: 41 5f                       	popq	%r15
100006706: 5d                          	popq	%rbp
100006707: c3                          	retq
100006708: 0f 1f 84 00 00 00 00 00     	nopl	(%rax,%rax)

0000000100006710 _mlx_new_window:
100006710: 55                          	pushq	%rbp
100006711: 48 89 e5                    	movq	%rsp, %rbp
100006714: 41 57                       	pushq	%r15
100006716: 41 56                       	pushq	%r14
100006718: 41 55                       	pushq	%r13
10000671a: 41 54                       	pushq	%r12
10000671c: 53                          	pushq	%rbx
10000671d: 48 83 ec 28                 	subq	$40, %rsp
100006721: 49 89 ce                    	movq	%rcx, %r14
100006724: 41 89 d7                    	movl	%edx, %r15d
100006727: 41 89 f4                    	movl	%esi, %r12d
10000672a: 49 89 fd                    	movq	%rdi, %r13
10000672d: bf 20 00 00 00              	movl	$32, %edi
100006732: e8 87 41 00 00              	callq	16775 <dyld_stub_binder+0x10000a8be>
100006737: 48 89 c3                    	movq	%rax, %rbx
10000673a: 48 85 c0                    	testq	%rax, %rax
10000673d: 0f 84 d9 00 00 00           	je	217 <_mlx_new_window+0x10c>
100006743: 48 c7 43 08 00 00 00 00     	movq	$0, 8(%rbx)
10000674b: 49 8b 45 08                 	movq	8(%r13), %rax
10000674f: 48 89 43 18                 	movq	%rax, 24(%rbx)
100006753: 48 b8 00 00 00 00 01 00 00 00       	movabsq	$4294967296, %rax
10000675d: 48 89 43 10                 	movq	%rax, 16(%rbx)
100006761: 49 89 5d 08                 	movq	%rbx, 8(%r13)
100006765: f2 41 0f 2a c4              	cvtsi2sd	%r12d, %xmm0
10000676a: f2 41 0f 2a cf              	cvtsi2sd	%r15d, %xmm1
10000676f: 0f 28 15 9a 69 00 00        	movaps	27034(%rip), %xmm2
100006776: 0f 29 55 b0                 	movaps	%xmm2, -80(%rbp)
10000677a: f2 0f 11 45 c0              	movsd	%xmm0, -64(%rbp)
10000677f: f2 0f 11 4d c8              	movsd	%xmm1, -56(%rbp)
100006784: 48 8b 3d 3d 23 02 00        	movq	140093(%rip), %rdi
10000678b: 48 8b 35 76 22 02 00        	movq	139894(%rip), %rsi
100006792: 4c 8b 3d 97 d8 01 00        	movq	120983(%rip), %r15
100006799: b9 01 00 00 00              	movl	$1, %ecx
10000679e: 4c 89 f2                    	movq	%r14, %rdx
1000067a1: 41 ff d7                    	callq	*%r15
1000067a4: 49 89 c6                    	movq	%rax, %r14
1000067a7: 48 8b 3d 22 23 02 00        	movq	140066(%rip), %rdi
1000067ae: e8 23 41 00 00              	callq	16675 <dyld_stub_binder+0x10000a8d6>
1000067b3: 48 8b 35 56 22 02 00        	movq	139862(%rip), %rsi
1000067ba: 4c 8b 45 c8                 	movq	-56(%rbp), %r8
1000067be: 4c 8b 4d c0                 	movq	-64(%rbp), %r9
1000067c2: 4c 8b 55 b0                 	movq	-80(%rbp), %r10
1000067c6: 4c 8b 5d b8                 	movq	-72(%rbp), %r11
1000067ca: 48 8d 0d 5f 24 02 00        	leaq	140383(%rip), %rcx
1000067d1: 48 89 c7                    	movq	%rax, %rdi
1000067d4: 4c 89 f2                    	movq	%r14, %rdx
1000067d7: 41 50                       	pushq	%r8
1000067d9: 41 51                       	pushq	%r9
1000067db: 41 53                       	pushq	%r11
1000067dd: 41 52                       	pushq	%r10
1000067df: 41 ff d7                    	callq	*%r15
1000067e2: 48 83 c4 20                 	addq	$32, %rsp
1000067e6: 48 89 03                    	movq	%rax, (%rbx)
1000067e9: 48 85 c0                    	testq	%rax, %rax
1000067ec: 74 2e                       	je	46 <_mlx_new_window+0x10c>
1000067ee: 48 8b 35 23 22 02 00        	movq	139811(%rip), %rsi
1000067f5: 48 89 c7                    	movq	%rax, %rdi
1000067f8: ff 15 32 d8 01 00           	callq	*120882(%rip)
1000067fe: 85 c0                       	testl	%eax, %eax
100006800: 75 1a                       	jne	26 <_mlx_new_window+0x10c>
100006802: 48 8b 3b                    	movq	(%rbx), %rdi
100006805: 48 8b 35 14 22 02 00        	movq	139796(%rip), %rsi
10000680c: 41 ff d7                    	callq	*%r15
10000680f: 48 8b 3b                    	movq	(%rbx), %rdi
100006812: 48 8b 35 0f 22 02 00        	movq	139791(%rip), %rsi
100006819: 41 ff d7                    	callq	*%r15
10000681c: 48 89 d8                    	movq	%rbx, %rax
10000681f: 48 83 c4 28                 	addq	$40, %rsp
100006823: 5b                          	popq	%rbx
100006824: 41 5c                       	popq	%r12
100006826: 41 5d                       	popq	%r13
100006828: 41 5e                       	popq	%r14
10000682a: 41 5f                       	popq	%r15
10000682c: 5d                          	popq	%rbp
10000682d: c3                          	retq
10000682e: 66 90                       	nop

0000000100006830 _mlx_clear_window:
100006830: 55                          	pushq	%rbp
100006831: 48 89 e5                    	movq	%rsp, %rbp
100006834: 41 56                       	pushq	%r14
100006836: 53                          	pushq	%rbx
100006837: 48 89 f3                    	movq	%rsi, %rbx
10000683a: 48 8b 3e                    	movq	(%rsi), %rdi
10000683d: 48 8b 35 4c 22 02 00        	movq	139852(%rip), %rsi
100006844: 4c 8b 35 e5 d7 01 00        	movq	120805(%rip), %r14
10000684b: 41 ff d6                    	callq	*%r14
10000684e: 48 8b 3b                    	movq	(%rbx), %rdi
100006851: 48 8b 35 d8 21 02 00        	movq	139736(%rip), %rsi
100006858: 41 ff d6                    	callq	*%r14
10000685b: ff 43 10                    	incl	16(%rbx)
10000685e: 5b                          	popq	%rbx
10000685f: 41 5e                       	popq	%r14
100006861: 5d                          	popq	%rbp
100006862: c3                          	retq
100006863: 66 2e 0f 1f 84 00 00 00 00 00       	nopw	%cs:(%rax,%rax)
10000686d: 0f 1f 00                    	nopl	(%rax)

0000000100006870 _mlx_expose_hook:
100006870: 55                          	pushq	%rbp
100006871: 48 89 e5                    	movq	%rsp, %rbp
100006874: 49 89 d0                    	movq	%rdx, %r8
100006877: 48 89 f1                    	movq	%rsi, %rcx
10000687a: 48 8b 3f                    	movq	(%rdi), %rdi
10000687d: 48 8b 35 7c 21 02 00        	movq	139644(%rip), %rsi
100006884: ba 0c 00 00 00              	movl	$12, %edx
100006889: 5d                          	popq	%rbp
10000688a: ff 25 a0 d7 01 00           	jmpq	*120736(%rip)

0000000100006890 _mlx_key_hook:
100006890: 55                          	pushq	%rbp
100006891: 48 89 e5                    	movq	%rsp, %rbp
100006894: 49 89 d0                    	movq	%rdx, %r8
100006897: 48 89 f1                    	movq	%rsi, %rcx
10000689a: 48 8b 3f                    	movq	(%rdi), %rdi
10000689d: 48 8b 35 5c 21 02 00        	movq	139612(%rip), %rsi
1000068a4: ba 03 00 00 00              	movl	$3, %edx
1000068a9: 5d                          	popq	%rbp
1000068aa: ff 25 80 d7 01 00           	jmpq	*120704(%rip)

00000001000068b0 _mlx_mouse_hook:
1000068b0: 55                          	pushq	%rbp
1000068b1: 48 89 e5                    	movq	%rsp, %rbp
1000068b4: 49 89 d0                    	movq	%rdx, %r8
1000068b7: 48 89 f1                    	movq	%rsi, %rcx
1000068ba: 48 8b 3f                    	movq	(%rdi), %rdi
1000068bd: 48 8b 35 3c 21 02 00        	movq	139580(%rip), %rsi
1000068c4: ba 04 00 00 00              	movl	$4, %edx
1000068c9: 5d                          	popq	%rbp
1000068ca: ff 25 60 d7 01 00           	jmpq	*120672(%rip)

00000001000068d0 _mlx_hook:
1000068d0: 55                          	pushq	%rbp
1000068d1: 48 89 e5                    	movq	%rsp, %rbp
1000068d4: 89 f2                       	movl	%esi, %edx
1000068d6: 48 8b 3f                    	movq	(%rdi), %rdi
1000068d9: 48 8b 35 20 21 02 00        	movq	139552(%rip), %rsi
1000068e0: 5d                          	popq	%rbp
1000068e1: ff 25 49 d7 01 00           	jmpq	*120649(%rip)
1000068e7: 66 0f 1f 84 00 00 00 00 00  	nopw	(%rax,%rax)

00000001000068f0 _mlx_do_key_autorepeatoff:
1000068f0: 55                          	pushq	%rbp
1000068f1: 48 89 e5                    	movq	%rsp, %rbp
1000068f4: 41 57                       	pushq	%r15
1000068f6: 41 56                       	pushq	%r14
1000068f8: 53                          	pushq	%rbx
1000068f9: 50                          	pushq	%rax
1000068fa: 48 8b 5f 08                 	movq	8(%rdi), %rbx
1000068fe: 48 85 db                    	testq	%rbx, %rbx
100006901: 74 31                       	je	49 <_mlx_do_key_autorepeatoff+0x44>
100006903: 4c 8b 35 6e 20 02 00        	movq	139374(%rip), %r14
10000690a: 4c 8b 3d 1f d7 01 00        	movq	120607(%rip), %r15
100006911: 66 2e 0f 1f 84 00 00 00 00 00       	nopw	%cs:(%rax,%rax)
10000691b: 0f 1f 44 00 00              	nopl	(%rax,%rax)
100006920: 48 8b 3b                    	movq	(%rbx), %rdi
100006923: 4c 89 f6                    	movq	%r14, %rsi
100006926: 31 d2                       	xorl	%edx, %edx
100006928: 41 ff d7                    	callq	*%r15
10000692b: 48 8b 5b 18                 	movq	24(%rbx), %rbx
10000692f: 48 85 db                    	testq	%rbx, %rbx
100006932: 75 ec                       	jne	-20 <_mlx_do_key_autorepeatoff+0x30>
100006934: 31 c0                       	xorl	%eax, %eax
100006936: 48 83 c4 08                 	addq	$8, %rsp
10000693a: 5b                          	popq	%rbx
10000693b: 41 5e                       	popq	%r14
10000693d: 41 5f                       	popq	%r15
10000693f: 5d                          	popq	%rbp
100006940: c3                          	retq
100006941: 66 2e 0f 1f 84 00 00 00 00 00       	nopw	%cs:(%rax,%rax)
10000694b: 0f 1f 44 00 00              	nopl	(%rax,%rax)

0000000100006950 _mlx_do_key_autorepeaton:
100006950: 55                          	pushq	%rbp
100006951: 48 89 e5                    	movq	%rsp, %rbp
100006954: 41 57                       	pushq	%r15
100006956: 41 56                       	pushq	%r14
100006958: 53                          	pushq	%rbx
100006959: 50                          	pushq	%rax
10000695a: 48 8b 5f 08                 	movq	8(%rdi), %rbx
10000695e: 48 85 db                    	testq	%rbx, %rbx
100006961: 74 34                       	je	52 <_mlx_do_key_autorepeaton+0x47>
100006963: 4c 8b 35 0e 20 02 00        	movq	139278(%rip), %r14
10000696a: 4c 8b 3d bf d6 01 00        	movq	120511(%rip), %r15
100006971: 66 2e 0f 1f 84 00 00 00 00 00       	nopw	%cs:(%rax,%rax)
10000697b: 0f 1f 44 00 00              	nopl	(%rax,%rax)
100006980: 48 8b 3b                    	movq	(%rbx), %rdi
100006983: 4c 89 f6                    	movq	%r14, %rsi
100006986: ba 01 00 00 00              	movl	$1, %edx
10000698b: 41 ff d7                    	callq	*%r15
10000698e: 48 8b 5b 18                 	movq	24(%rbx), %rbx
100006992: 48 85 db                    	testq	%rbx, %rbx
100006995: 75 e9                       	jne	-23 <_mlx_do_key_autorepeaton+0x30>
100006997: 31 c0                       	xorl	%eax, %eax
100006999: 48 83 c4 08                 	addq	$8, %rsp
10000699d: 5b                          	popq	%rbx
10000699e: 41 5e                       	popq	%r14
1000069a0: 41 5f                       	popq	%r15
1000069a2: 5d                          	popq	%rbp
1000069a3: c3                          	retq
1000069a4: 66 2e 0f 1f 84 00 00 00 00 00       	nopw	%cs:(%rax,%rax)
1000069ae: 66 90                       	nop

00000001000069b0 _mlx_destroy_window:
1000069b0: 55                          	pushq	%rbp
1000069b1: 48 89 e5                    	movq	%rsp, %rbp
1000069b4: 41 57                       	pushq	%r15
1000069b6: 41 56                       	pushq	%r14
1000069b8: 41 54                       	pushq	%r12
1000069ba: 53                          	pushq	%rbx
1000069bb: 48 83 ec 20                 	subq	$32, %rsp
1000069bf: 49 89 f7                    	movq	%rsi, %r15
1000069c2: 49 89 fe                    	movq	%rdi, %r14
1000069c5: 48 8b 47 08                 	movq	8(%rdi), %rax
1000069c9: 48 89 45 d8                 	movq	%rax, -40(%rbp)
1000069cd: 48 85 c0                    	testq	%rax, %rax
1000069d0: 74 2f                       	je	47 <_mlx_destroy_window+0x51>
1000069d2: 48 8d 4d c0                 	leaq	-64(%rbp), %rcx
1000069d6: 66 2e 0f 1f 84 00 00 00 00 00       	nopw	%cs:(%rax,%rax)
1000069e0: 4c 39 f8                    	cmpq	%r15, %rax
1000069e3: 75 08                       	jne	8 <_mlx_destroy_window+0x3d>
1000069e5: 49 8b 47 18                 	movq	24(%r15), %rax
1000069e9: 48 89 41 18                 	movq	%rax, 24(%rcx)
1000069ed: 48 85 c0                    	testq	%rax, %rax
1000069f0: 74 0f                       	je	15 <_mlx_destroy_window+0x51>
1000069f2: 48 89 c1                    	movq	%rax, %rcx
1000069f5: 48 8b 50 18                 	movq	24(%rax), %rdx
1000069f9: 48 89 d0                    	movq	%rdx, %rax
1000069fc: 48 85 d2                    	testq	%rdx, %rdx
1000069ff: 75 df                       	jne	-33 <_mlx_destroy_window+0x30>
100006a01: 48 8b 45 d8                 	movq	-40(%rbp), %rax
100006a05: 49 89 46 08                 	movq	%rax, 8(%r14)
100006a09: 41 83 7f 14 00              	cmpl	$0, 20(%r15)
100006a0e: 74 5f                       	je	95 <_mlx_destroy_window+0xbf>
100006a10: 49 8b 3f                    	movq	(%r15), %rdi
100006a13: 48 8b 35 76 20 02 00        	movq	139382(%rip), %rsi
100006a1a: ff 15 10 d6 01 00           	callq	*120336(%rip)
100006a20: 49 8b 5f 08                 	movq	8(%r15), %rbx
100006a24: 48 85 db                    	testq	%rbx, %rbx
100006a27: 74 36                       	je	54 <_mlx_destroy_window+0xaf>
100006a29: 0f 1f 80 00 00 00 00        	nopl	(%rax)
100006a30: 48 8d 73 04                 	leaq	4(%rbx), %rsi
100006a34: bf 01 00 00 00              	movl	$1, %edi
100006a39: e8 d2 3d 00 00              	callq	15826 <dyld_stub_binder+0x10000a810>
100006a3e: bf 01 00 00 00              	movl	$1, %edi
100006a43: 48 89 de                    	movq	%rbx, %rsi
100006a46: e8 d7 3d 00 00              	callq	15831 <dyld_stub_binder+0x10000a822>
100006a4b: 4c 8b 63 10                 	movq	16(%rbx), %r12
100006a4f: 48 89 df                    	movq	%rbx, %rdi
100006a52: e8 65 3d 00 00              	callq	15717 <dyld_stub_binder+0x10000a7bc>
100006a57: 4c 89 e3                    	movq	%r12, %rbx
100006a5a: 4d 85 e4                    	testq	%r12, %r12
100006a5d: 75 d1                       	jne	-47 <_mlx_destroy_window+0x80>
100006a5f: 49 8b 3f                    	movq	(%r15), %rdi
100006a62: 48 8b 35 b7 1f 02 00        	movq	139191(%rip), %rsi
100006a69: ff 15 c1 d5 01 00           	callq	*120257(%rip)
100006a6f: 49 8b 3f                    	movq	(%r15), %rdi
100006a72: 48 8b 35 af 1f 02 00        	movq	139183(%rip), %rsi
100006a79: ff 15 b1 d5 01 00           	callq	*120241(%rip)
100006a7f: 4c 89 ff                    	movq	%r15, %rdi
100006a82: e8 35 3d 00 00              	callq	15669 <dyld_stub_binder+0x10000a7bc>
100006a87: 4c 89 f7                    	movq	%r14, %rdi
100006a8a: e8 81 04 00 00              	callq	1153 <_mlx_do_sync>
100006a8f: 31 c0                       	xorl	%eax, %eax
100006a91: 48 83 c4 20                 	addq	$32, %rsp
100006a95: 5b                          	popq	%rbx
100006a96: 41 5c                       	popq	%r12
100006a98: 41 5e                       	popq	%r14
100006a9a: 41 5f                       	popq	%r15
100006a9c: 5d                          	popq	%rbp
100006a9d: c3                          	retq
100006a9e: 90                          	nop
100006a9f: 90                          	nop

0000000100006aa0 _do_loop_hook2:
100006aa0: 55                          	pushq	%rbp
100006aa1: 48 89 e5                    	movq	%rsp, %rbp
100006aa4: 48 8b 7e 20                 	movq	32(%rsi), %rdi
100006aa8: 5d                          	popq	%rbp
100006aa9: ff 66 18                    	jmpq	*24(%rsi)
100006aac: 0f 1f 40 00                 	nopl	(%rax)

0000000100006ab0 _do_loop_flush:
100006ab0: 55                          	pushq	%rbp
100006ab1: 48 89 e5                    	movq	%rsp, %rbp
100006ab4: 41 57                       	pushq	%r15
100006ab6: 41 56                       	pushq	%r14
100006ab8: 41 54                       	pushq	%r12
100006aba: 53                          	pushq	%rbx
100006abb: 48 8b 5a 08                 	movq	8(%rdx), %rbx
100006abf: 48 85 db                    	testq	%rbx, %rbx
100006ac2: 74 51                       	je	81 <_do_loop_flush+0x65>
100006ac4: 4c 8b 35 c5 1f 02 00        	movq	139205(%rip), %r14
100006acb: 4c 8b 3d 16 1f 02 00        	movq	139030(%rip), %r15
100006ad2: 4c 8b 25 57 d5 01 00        	movq	120151(%rip), %r12
100006ad9: eb 0e                       	jmp	14 <_do_loop_flush+0x39>
100006adb: 0f 1f 44 00 00              	nopl	(%rax,%rax)
100006ae0: 48 8b 5b 18                 	movq	24(%rbx), %rbx
100006ae4: 48 85 db                    	testq	%rbx, %rbx
100006ae7: 74 2c                       	je	44 <_do_loop_flush+0x65>
100006ae9: 83 7b 10 00                 	cmpl	$0, 16(%rbx)
100006aed: 7e f1                       	jle	-15 <_do_loop_flush+0x30>
100006aef: 83 7b 14 00                 	cmpl	$0, 20(%rbx)
100006af3: 74 eb                       	je	-21 <_do_loop_flush+0x30>
100006af5: 48 8b 3b                    	movq	(%rbx), %rdi
100006af8: 4c 89 f6                    	movq	%r14, %rsi
100006afb: 41 ff d4                    	callq	*%r12
100006afe: 48 8b 3b                    	movq	(%rbx), %rdi
100006b01: 4c 89 fe                    	movq	%r15, %rsi
100006b04: 41 ff d4                    	callq	*%r12
100006b07: e8 3a 3d 00 00              	callq	15674 <dyld_stub_binder+0x10000a846>
100006b0c: c7 43 10 00 00 00 00        	movl	$0, 16(%rbx)
100006b13: eb cb                       	jmp	-53 <_do_loop_flush+0x30>
100006b15: 5b                          	popq	%rbx
100006b16: 41 5c                       	popq	%r12
100006b18: 41 5e                       	popq	%r14
100006b1a: 41 5f                       	popq	%r15
100006b1c: 5d                          	popq	%rbp
100006b1d: c3                          	retq
100006b1e: 66 90                       	nop

0000000100006b20 _mlx_init:
100006b20: 55                          	pushq	%rbp
100006b21: 48 89 e5                    	movq	%rsp, %rbp
100006b24: 41 57                       	pushq	%r15
100006b26: 41 56                       	pushq	%r14
100006b28: 41 54                       	pushq	%r12
100006b2a: 53                          	pushq	%rbx
100006b2b: 48 81 ec d0 00 00 00        	subq	$208, %rsp
100006b32: 48 8b 05 d7 d4 01 00        	movq	120023(%rip), %rax
100006b39: 48 8b 00                    	movq	(%rax), %rax
100006b3c: 48 89 45 d8                 	movq	%rax, -40(%rbp)
100006b40: bf 40 00 00 00              	movl	$64, %edi
100006b45: e8 74 3d 00 00              	callq	15732 <dyld_stub_binder+0x10000a8be>
100006b4a: 49 89 c4                    	movq	%rax, %r12
100006b4d: 48 85 c0                    	testq	%rax, %rax
100006b50: 0f 84 c3 01 00 00           	je	451 <_mlx_init+0x1f9>
100006b56: 41 c7 44 24 38 00 00 00 00  	movl	$0, 56(%r12)
100006b5f: 49 c7 44 24 08 00 00 00 00  	movq	$0, 8(%r12)
100006b68: 49 c7 44 24 10 00 00 00 00  	movq	$0, 16(%r12)
100006b71: 49 c7 44 24 18 00 00 00 00  	movq	$0, 24(%r12)
100006b7a: 49 c7 44 24 20 00 00 00 00  	movq	$0, 32(%r12)
100006b83: 48 8b 3d 4e 1f 02 00        	movq	139086(%rip), %rdi
100006b8a: 48 8b 35 a7 1e 02 00        	movq	138919(%rip), %rsi
100006b91: 4c 8b 3d 98 d4 01 00        	movq	119960(%rip), %r15
100006b98: 41 ff d7                    	callq	*%r15
100006b9b: 49 89 04 24                 	movq	%rax, (%r12)
100006b9f: 0f 57 c0                    	xorps	%xmm0, %xmm0
100006ba2: 0f 29 85 10 ff ff ff        	movaps	%xmm0, -240(%rbp)
100006ba9: 0f 29 85 20 ff ff ff        	movaps	%xmm0, -224(%rbp)
100006bb0: 0f 29 85 30 ff ff ff        	movaps	%xmm0, -208(%rbp)
100006bb7: 0f 29 85 40 ff ff ff        	movaps	%xmm0, -192(%rbp)
100006bbe: 48 8b 3d 1b 1f 02 00        	movq	139035(%rip), %rdi
100006bc5: 48 8b 35 74 1e 02 00        	movq	138868(%rip), %rsi
100006bcc: 48 8d 15 d5 d4 01 00        	leaq	120021(%rip), %rdx
100006bd3: 41 ff d7                    	callq	*%r15
100006bd6: 48 8b 35 6b 1e 02 00        	movq	138859(%rip), %rsi
100006bdd: 48 8d 95 10 ff ff ff        	leaq	-240(%rbp), %rdx
100006be4: 48 8d 8d 58 ff ff ff        	leaq	-168(%rbp), %rcx
100006beb: 41 b8 10 00 00 00           	movl	$16, %r8d
100006bf1: 48 89 c7                    	movq	%rax, %rdi
100006bf4: 41 ff d7                    	callq	*%r15
100006bf7: 48 85 c0                    	testq	%rax, %rax
100006bfa: 74 21                       	je	33 <_mlx_init+0xfd>
100006bfc: 48 8b 85 18 ff ff ff        	movq	-232(%rbp), %rax
100006c03: 48 8b 38                    	movq	(%rax), %rdi
100006c06: 4c 8b 35 43 1e 02 00        	movq	138819(%rip), %r14
100006c0d: ba 02 00 00 00              	movl	$2, %edx
100006c12: 4c 89 f6                    	movq	%r14, %rsi
100006c15: ff 15 15 d4 01 00           	callq	*119829(%rip)
100006c1b: eb 07                       	jmp	7 <_mlx_init+0x104>
100006c1d: 4c 8b 35 2c 1e 02 00        	movq	138796(%rip), %r14
100006c24: bf a0 86 01 00              	movl	$100000, %edi
100006c29: e8 f0 3c 00 00              	callq	15600 <dyld_stub_binder+0x10000a91e>
100006c2e: 48 b8 00 00 00 00 02 00 00 00       	movabsq	$8589934592, %rax
100006c38: 48 89 85 50 ff ff ff        	movq	%rax, -176(%rbp)
100006c3f: 48 8d bd 50 ff ff ff        	leaq	-176(%rbp), %rdi
100006c46: be 01 00 00 00              	movl	$1, %esi
100006c4b: e8 42 3b 00 00              	callq	15170 <dyld_stub_binder+0x10000a792>
100006c50: bf a0 86 01 00              	movl	$100000, %edi
100006c55: e8 c4 3c 00 00              	callq	15556 <dyld_stub_binder+0x10000a91e>
100006c5a: 48 8b 3d 7f 1e 02 00        	movq	138879(%rip), %rdi
100006c61: 48 8b 35 f0 1d 02 00        	movq	138736(%rip), %rsi
100006c68: 41 ff d7                    	callq	*%r15
100006c6b: ba 02 00 00 00              	movl	$2, %edx
100006c70: 48 89 c7                    	movq	%rax, %rdi
100006c73: 4c 89 f6                    	movq	%r14, %rsi
100006c76: 41 ff d7                    	callq	*%r15
100006c79: 31 db                       	xorl	%ebx, %ebx
100006c7b: 4c 89 e7                    	movq	%r12, %rdi
100006c7e: be 74 04 00 00              	movl	$1140, %esi
100006c83: ba 14 00 00 00              	movl	$20, %edx
100006c88: 31 c0                       	xorl	%eax, %eax
100006c8a: e8 c1 04 00 00              	callq	1217 <_mlx_new_image>
100006c8f: 49 89 44 24 30              	movq	%rax, 48(%r12)
100006c94: 48 8d 0d c5 64 00 00        	leaq	25797(%rip), %rcx
100006c9b: 0f 1f 44 00 00              	nopl	(%rax,%rax)
100006ca0: 0f b6 54 0b 0e              	movzbl	14(%rbx,%rcx), %edx
100006ca5: 48 8b 40 08                 	movq	8(%rax), %rax
100006ca9: 88 14 18                    	movb	%dl, (%rax,%rbx)
100006cac: 0f b6 44 0b 0c              	movzbl	12(%rbx,%rcx), %eax
100006cb1: 0f b6 54 0b 0d              	movzbl	13(%rbx,%rcx), %edx
100006cb6: 49 8b 74 24 30              	movq	48(%r12), %rsi
100006cbb: 48 8b 76 08                 	movq	8(%rsi), %rsi
100006cbf: 88 54 1e 01                 	movb	%dl, 1(%rsi,%rbx)
100006cc3: 49 8b 54 24 30              	movq	48(%r12), %rdx
100006cc8: 48 8b 52 08                 	movq	8(%rdx), %rdx
100006ccc: 88 44 1a 02                 	movb	%al, 2(%rdx,%rbx)
100006cd0: 0f b6 44 0b 0f              	movzbl	15(%rbx,%rcx), %eax
100006cd5: f6 d0                       	notb	%al
100006cd7: 49 8b 54 24 30              	movq	48(%r12), %rdx
100006cdc: 48 8b 52 08                 	movq	8(%rdx), %rdx
100006ce0: 88 44 1a 03                 	movb	%al, 3(%rdx,%rbx)
100006ce4: 48 81 fb 3b 64 01 00        	cmpq	$91195, %rbx
100006ceb: 77 0b                       	ja	11 <_mlx_init+0x1d8>
100006ced: 48 83 c3 04                 	addq	$4, %rbx
100006cf1: 49 8b 44 24 30              	movq	48(%r12), %rax
100006cf6: eb a8                       	jmp	-88 <_mlx_init+0x180>
100006cf8: 49 8b 44 24 30              	movq	48(%r12), %rax
100006cfd: c7 40 18 49 92 e4 40        	movl	$1088721481, 24(%rax)
100006d04: 48 b9 49 92 e4 40 00 00 70 c1       	movabsq	$-4508103225909145015, %rcx
100006d0e: 48 89 48 20                 	movq	%rcx, 32(%rax)
100006d12: c7 40 2c 00 00 70 c1        	movl	$3245342720, 44(%rax)
100006d19: 48 8b 05 f0 d2 01 00        	movq	119536(%rip), %rax
100006d20: 48 8b 00                    	movq	(%rax), %rax
100006d23: 48 3b 45 d8                 	cmpq	-40(%rbp), %rax
100006d27: 75 13                       	jne	19 <_mlx_init+0x21c>
100006d29: 4c 89 e0                    	movq	%r12, %rax
100006d2c: 48 81 c4 d0 00 00 00        	addq	$208, %rsp
100006d33: 5b                          	popq	%rbx
100006d34: 41 5c                       	popq	%r12
100006d36: 41 5e                       	popq	%r14
100006d38: 41 5f                       	popq	%r15
100006d3a: 5d                          	popq	%rbp
100006d3b: c3                          	retq
100006d3c: e8 5d 3a 00 00              	callq	14941 <dyld_stub_binder+0x10000a79e>
100006d41: 66 2e 0f 1f 84 00 00 00 00 00       	nopw	%cs:(%rax,%rax)
100006d4b: 0f 1f 44 00 00              	nopl	(%rax,%rax)

0000000100006d50 _mlx_loop:
100006d50: 55                          	pushq	%rbp
100006d51: 48 89 e5                    	movq	%rsp, %rbp
100006d54: 53                          	pushq	%rbx
100006d55: 48 83 ec 28                 	subq	$40, %rsp
100006d59: 48 c7 45 d0 00 00 00 00     	movq	$0, -48(%rbp)
100006d61: 48 89 7d d8                 	movq	%rdi, -40(%rbp)
100006d65: 48 c7 45 e0 00 00 00 00     	movq	$0, -32(%rbp)
100006d6d: 48 c7 45 e8 00 00 00 00     	movq	$0, -24(%rbp)
100006d75: 48 c7 45 f0 00 00 00 00     	movq	$0, -16(%rbp)
100006d7d: c7 47 38 01 00 00 00        	movl	$1, 56(%rdi)
100006d84: 4c 8d 05 25 fd ff ff        	leaq	-731(%rip), %r8
100006d8b: 4c 8d 4d d0                 	leaq	-48(%rbp), %r9
100006d8f: be 02 00 00 00              	movl	$2, %esi
100006d94: bf 00 00 00 00              	movl	$0, %edi
100006d99: ba 01 00 00 00              	movl	$1, %edx
100006d9e: 31 c9                       	xorl	%ecx, %ecx
100006da0: e8 db 39 00 00              	callq	14811 <dyld_stub_binder+0x10000a780>
100006da5: 48 89 c3                    	movq	%rax, %rbx
100006da8: e8 cd 39 00 00              	callq	14797 <dyld_stub_binder+0x10000a77a>
100006dad: 48 8b 0d 74 d2 01 00        	movq	119412(%rip), %rcx
100006db4: 48 8b 11                    	movq	(%rcx), %rdx
100006db7: 48 89 c7                    	movq	%rax, %rdi
100006dba: 48 89 de                    	movq	%rbx, %rsi
100006dbd: e8 ac 39 00 00              	callq	14764 <dyld_stub_binder+0x10000a76e>
100006dc2: 48 8b 05 37 d2 01 00        	movq	119351(%rip), %rax
100006dc9: 48 8b 38                    	movq	(%rax), %rdi
100006dcc: 48 8b 35 8d 1c 02 00        	movq	138381(%rip), %rsi
100006dd3: ff 15 57 d2 01 00           	callq	*119383(%rip)
100006dd9: 48 83 c4 28                 	addq	$40, %rsp
100006ddd: 5b                          	popq	%rbx
100006dde: 5d                          	popq	%rbp
100006ddf: c3                          	retq

0000000100006de0 _mlx_pixel_put:
100006de0: 55                          	pushq	%rbp
100006de1: 48 89 e5                    	movq	%rsp, %rbp
100006de4: 41 57                       	pushq	%r15
100006de6: 41 56                       	pushq	%r14
100006de8: 41 55                       	pushq	%r13
100006dea: 41 54                       	pushq	%r12
100006dec: 53                          	pushq	%rbx
100006ded: 50                          	pushq	%rax
100006dee: 83 7e 14 00                 	cmpl	$0, 20(%rsi)
100006df2: 74 39                       	je	57 <_mlx_pixel_put+0x4d>
100006df4: 45 89 c7                    	movl	%r8d, %r15d
100006df7: 41 89 ce                    	movl	%ecx, %r14d
100006dfa: 41 89 d4                    	movl	%edx, %r12d
100006dfd: 48 89 f3                    	movq	%rsi, %rbx
100006e00: 48 8b 3e                    	movq	(%rsi), %rdi
100006e03: 48 8b 35 86 1c 02 00        	movq	138374(%rip), %rsi
100006e0a: 4c 8b 2d 1f d2 01 00        	movq	119327(%rip), %r13
100006e11: 41 ff d5                    	callq	*%r13
100006e14: 48 8b 3b                    	movq	(%rbx), %rdi
100006e17: 48 8b 35 4a 1c 02 00        	movq	138314(%rip), %rsi
100006e1e: 44 89 fa                    	movl	%r15d, %edx
100006e21: 44 89 e1                    	movl	%r12d, %ecx
100006e24: 45 89 f0                    	movl	%r14d, %r8d
100006e27: 41 ff d5                    	callq	*%r13
100006e2a: ff 43 10                    	incl	16(%rbx)
100006e2d: 48 83 c4 08                 	addq	$8, %rsp
100006e31: 5b                          	popq	%rbx
100006e32: 41 5c                       	popq	%r12
100006e34: 41 5d                       	popq	%r13
100006e36: 41 5e                       	popq	%r14
100006e38: 41 5f                       	popq	%r15
100006e3a: 5d                          	popq	%rbp
100006e3b: c3                          	retq
100006e3c: 0f 1f 40 00                 	nopl	(%rax)

0000000100006e40 _mlx_int_loop_once:
100006e40: 55                          	pushq	%rbp
100006e41: 48 89 e5                    	movq	%rsp, %rbp
100006e44: 41 57                       	pushq	%r15
100006e46: 41 56                       	pushq	%r14
100006e48: 41 55                       	pushq	%r13
100006e4a: 41 54                       	pushq	%r12
100006e4c: 53                          	pushq	%rbx
100006e4d: 50                          	pushq	%rax
100006e4e: 48 8b 3d 93 1c 02 00        	movq	138387(%rip), %rdi
100006e55: 48 8b 35 14 1c 02 00        	movq	138260(%rip), %rsi
100006e5c: 4c 8b 3d cd d1 01 00        	movq	119245(%rip), %r15
100006e63: f2 0f 10 05 e5 62 00 00     	movsd	25317(%rip), %xmm0
100006e6b: 41 ff d7                    	callq	*%r15
100006e6e: 49 89 c6                    	movq	%rax, %r14
100006e71: 4c 8b 25 88 d1 01 00        	movq	119176(%rip), %r12
100006e78: 49 8b 3c 24                 	movq	(%r12), %rdi
100006e7c: 48 8b 05 85 d1 01 00        	movq	119173(%rip), %rax
100006e83: 4c 8b 28                    	movq	(%rax), %r13
100006e86: 48 8b 35 eb 1b 02 00        	movq	138219(%rip), %rsi
100006e8d: 48 c7 c2 ff ff ff ff        	movq	$-1, %rdx
100006e94: 4c 89 f1                    	movq	%r14, %rcx
100006e97: 4d 89 e8                    	movq	%r13, %r8
100006e9a: 41 b9 01 00 00 00           	movl	$1, %r9d
100006ea0: 41 ff d7                    	callq	*%r15
100006ea3: 48 85 c0                    	testq	%rax, %rax
100006ea6: 74 49                       	je	73 <_mlx_int_loop_once+0xb1>
100006ea8: 48 8b 1d d9 1b 02 00        	movq	138201(%rip), %rbx
100006eaf: 90                          	nop
100006eb0: 49 8b 3c 24                 	movq	(%r12), %rdi
100006eb4: 48 8b 35 c5 1b 02 00        	movq	138181(%rip), %rsi
100006ebb: 48 89 c2                    	movq	%rax, %rdx
100006ebe: 41 ff d7                    	callq	*%r15
100006ec1: 49 8b 3c 24                 	movq	(%r12), %rdi
100006ec5: 48 89 de                    	movq	%rbx, %rsi
100006ec8: 41 ff d7                    	callq	*%r15
100006ecb: 49 8b 3c 24                 	movq	(%r12), %rdi
100006ecf: 48 8b 35 a2 1b 02 00        	movq	138146(%rip), %rsi
100006ed6: 48 c7 c2 ff ff ff ff        	movq	$-1, %rdx
100006edd: 4c 89 f1                    	movq	%r14, %rcx
100006ee0: 4d 89 e8                    	movq	%r13, %r8
100006ee3: 41 b9 01 00 00 00           	movl	$1, %r9d
100006ee9: 41 ff d7                    	callq	*%r15
100006eec: 48 85 c0                    	testq	%rax, %rax
100006eef: 75 bf                       	jne	-65 <_mlx_int_loop_once+0x70>
100006ef1: 4c 89 f7                    	movq	%r14, %rdi
100006ef4: 48 83 c4 08                 	addq	$8, %rsp
100006ef8: 5b                          	popq	%rbx
100006ef9: 41 5c                       	popq	%r12
100006efb: 41 5d                       	popq	%r13
100006efd: 41 5e                       	popq	%r14
100006eff: 41 5f                       	popq	%r15
100006f01: 5d                          	popq	%rbp
100006f02: ff 25 30 d1 01 00           	jmpq	*119088(%rip)
100006f08: 0f 1f 84 00 00 00 00 00     	nopl	(%rax,%rax)

0000000100006f10 _mlx_do_sync:
100006f10: 55                          	pushq	%rbp
100006f11: 48 89 e5                    	movq	%rsp, %rbp
100006f14: 41 57                       	pushq	%r15
100006f16: 41 56                       	pushq	%r14
100006f18: 41 55                       	pushq	%r13
100006f1a: 41 54                       	pushq	%r12
100006f1c: 53                          	pushq	%rbx
100006f1d: 48 83 ec 38                 	subq	$56, %rsp
100006f21: 48 89 7d a0                 	movq	%rdi, -96(%rbp)
100006f25: 4c 8b 67 08                 	movq	8(%rdi), %r12
100006f29: 4d 85 e4                    	testq	%r12, %r12
100006f2c: 0f 84 4b 01 00 00           	je	331 <_mlx_do_sync+0x16d>
100006f32: 48 8b 05 57 1b 02 00        	movq	138071(%rip), %rax
100006f39: 48 89 45 a8                 	movq	%rax, -88(%rbp)
100006f3d: 48 8b 05 a4 1a 02 00        	movq	137892(%rip), %rax
100006f44: 48 89 45 b0                 	movq	%rax, -80(%rbp)
100006f48: 48 8b 05 21 1b 02 00        	movq	138017(%rip), %rax
100006f4f: 48 89 45 c0                 	movq	%rax, -64(%rbp)
100006f53: 48 8b 05 ae d0 01 00        	movq	118958(%rip), %rax
100006f5a: 4c 8b 38                    	movq	(%rax), %r15
100006f5d: 4c 8b 2d 14 1b 02 00        	movq	138004(%rip), %r13
100006f64: 48 8b 05 15 1b 02 00        	movq	138005(%rip), %rax
100006f6b: 4c 8b 35 be d0 01 00        	movq	118974(%rip), %r14
100006f72: 48 89 45 c8                 	movq	%rax, -56(%rbp)
100006f76: 4c 89 6d d0                 	movq	%r13, -48(%rbp)
100006f7a: eb 2a                       	jmp	42 <_mlx_do_sync+0x96>
100006f7c: 0f 1f 40 00                 	nopl	(%rax)
100006f80: 4c 89 ff                    	movq	%r15, %rdi
100006f83: ff 15 af d0 01 00           	callq	*118959(%rip)
100006f89: 4d 89 e7                    	movq	%r12, %r15
100006f8c: 4c 8b 6d d0                 	movq	-48(%rbp), %r13
100006f90: 48 8b 45 c8                 	movq	-56(%rbp), %rax
100006f94: 4c 8b 65 b8                 	movq	-72(%rbp), %r12
100006f98: 4d 8b 64 24 18              	movq	24(%r12), %r12
100006f9d: 4d 85 e4                    	testq	%r12, %r12
100006fa0: 0f 84 d7 00 00 00           	je	215 <_mlx_do_sync+0x16d>
100006fa6: 41 83 7c 24 14 00           	cmpl	$0, 20(%r12)
100006fac: 74 ea                       	je	-22 <_mlx_do_sync+0x88>
100006fae: 49 8b 3c 24                 	movq	(%r12), %rdi
100006fb2: 48 89 c3                    	movq	%rax, %rbx
100006fb5: 48 8b 75 a8                 	movq	-88(%rbp), %rsi
100006fb9: 41 ff d6                    	callq	*%r14
100006fbc: 49 8b 3c 24                 	movq	(%r12), %rdi
100006fc0: 48 8b 75 b0                 	movq	-80(%rbp), %rsi
100006fc4: 41 ff d6                    	callq	*%r14
100006fc7: e8 7a 38 00 00              	callq	14458 <dyld_stub_binder+0x10000a846>
100006fcc: 48 89 d8                    	movq	%rbx, %rax
100006fcf: 48 8b 1d 2a d0 01 00        	movq	118826(%rip), %rbx
100006fd6: 48 8b 75 a0                 	movq	-96(%rbp), %rsi
100006fda: 83 7e 38 00                 	cmpl	$0, 56(%rsi)
100006fde: 75 b8                       	jne	-72 <_mlx_do_sync+0x88>
100006fe0: 4c 89 65 b8                 	movq	%r12, -72(%rbp)
100006fe4: 48 8b 3d fd 1a 02 00        	movq	137981(%rip), %rdi
100006feb: 48 8b 75 c0                 	movq	-64(%rbp), %rsi
100006fef: f2 0f 10 05 59 61 00 00     	movsd	24921(%rip), %xmm0
100006ff7: 49 89 dc                    	movq	%rbx, %r12
100006ffa: 4c 89 fb                    	movq	%r15, %rbx
100006ffd: 41 ff d6                    	callq	*%r14
100007000: 49 89 c7                    	movq	%rax, %r15
100007003: 49 8b 3c 24                 	movq	(%r12), %rdi
100007007: 4c 89 ee                    	movq	%r13, %rsi
10000700a: 48 c7 c2 ff ff ff ff        	movq	$-1, %rdx
100007011: 48 89 c1                    	movq	%rax, %rcx
100007014: 49 89 dc                    	movq	%rbx, %r12
100007017: 49 89 d8                    	movq	%rbx, %r8
10000701a: 41 b9 01 00 00 00           	movl	$1, %r9d
100007020: 41 ff d6                    	callq	*%r14
100007023: 48 85 c0                    	testq	%rax, %rax
100007026: 48 8b 1d d3 cf 01 00        	movq	118739(%rip), %rbx
10000702d: 0f 84 4d ff ff ff           	je	-179 <_mlx_do_sync+0x70>
100007033: 4c 8b 2d 4e 1a 02 00        	movq	137806(%rip), %r13
10000703a: 66 0f 1f 44 00 00           	nopw	(%rax,%rax)
100007040: 48 8b 3b                    	movq	(%rbx), %rdi
100007043: 48 8b 75 c8                 	movq	-56(%rbp), %rsi
100007047: 48 89 c2                    	movq	%rax, %rdx
10000704a: 41 ff d6                    	callq	*%r14
10000704d: 48 8b 3b                    	movq	(%rbx), %rdi
100007050: 4c 89 ee                    	movq	%r13, %rsi
100007053: 41 ff d6                    	callq	*%r14
100007056: 48 8b 3b                    	movq	(%rbx), %rdi
100007059: 48 8b 75 d0                 	movq	-48(%rbp), %rsi
10000705d: 48 c7 c2 ff ff ff ff        	movq	$-1, %rdx
100007064: 4c 89 f9                    	movq	%r15, %rcx
100007067: 4d 89 e0                    	movq	%r12, %r8
10000706a: 41 b9 01 00 00 00           	movl	$1, %r9d
100007070: 41 ff d6                    	callq	*%r14
100007073: 48 85 c0                    	testq	%rax, %rax
100007076: 75 c8                       	jne	-56 <_mlx_do_sync+0x130>
100007078: e9 03 ff ff ff              	jmp	-253 <_mlx_do_sync+0x70>
10000707d: 31 c0                       	xorl	%eax, %eax
10000707f: 48 83 c4 38                 	addq	$56, %rsp
100007083: 5b                          	popq	%rbx
100007084: 41 5c                       	popq	%r12
100007086: 41 5d                       	popq	%r13
100007088: 41 5e                       	popq	%r14
10000708a: 41 5f                       	popq	%r15
10000708c: 5d                          	popq	%rbp
10000708d: c3                          	retq
10000708e: 66 90                       	nop

0000000100007090 _mlx_loop_hook:
100007090: 55                          	pushq	%rbp
100007091: 48 89 e5                    	movq	%rsp, %rbp
100007094: 41 57                       	pushq	%r15
100007096: 41 56                       	pushq	%r14
100007098: 53                          	pushq	%rbx
100007099: 48 83 ec 28                 	subq	$40, %rsp
10000709d: 49 89 d7                    	movq	%rdx, %r15
1000070a0: 49 89 f6                    	movq	%rsi, %r14
1000070a3: 48 89 fb                    	movq	%rdi, %rbx
1000070a6: 48 c7 45 c0 00 00 00 00     	movq	$0, -64(%rbp)
1000070ae: 48 89 7d c8                 	movq	%rdi, -56(%rbp)
1000070b2: 48 c7 45 d0 00 00 00 00     	movq	$0, -48(%rbp)
1000070ba: 48 c7 45 d8 00 00 00 00     	movq	$0, -40(%rbp)
1000070c2: 48 c7 45 e0 00 00 00 00     	movq	$0, -32(%rbp)
1000070ca: 48 83 7f 18 00              	cmpq	$0, 24(%rdi)
1000070cf: 74 13                       	je	19 <_mlx_loop_hook+0x54>
1000070d1: 48 8b 7b 28                 	movq	40(%rbx), %rdi
1000070d5: e8 b2 36 00 00              	callq	14002 <dyld_stub_binder+0x10000a78c>
1000070da: 48 8b 7b 28                 	movq	40(%rbx), %rdi
1000070de: ff 15 54 cf 01 00           	callq	*118612(%rip)
1000070e4: 4c 89 73 18                 	movq	%r14, 24(%rbx)
1000070e8: 4c 89 7b 20                 	movq	%r15, 32(%rbx)
1000070ec: 4d 85 f6                    	testq	%r14, %r14
1000070ef: 74 4a                       	je	74 <_mlx_loop_hook+0xab>
1000070f1: 48 8b 05 28 cf 01 00        	movq	118568(%rip), %rax
1000070f8: 48 8b 38                    	movq	(%rax), %rdi
1000070fb: 48 8d 0d 9e f9 ff ff        	leaq	-1634(%rip), %rcx
100007102: f2 0f 10 0d 4e 60 00 00     	movsd	24654(%rip), %xmm1
10000710a: 4c 8d 45 c0                 	leaq	-64(%rbp), %r8
10000710e: 0f 57 c0                    	xorps	%xmm0, %xmm0
100007111: 31 f6                       	xorl	%esi, %esi
100007113: 31 d2                       	xorl	%edx, %edx
100007115: e8 6c 36 00 00              	callq	13932 <dyld_stub_binder+0x10000a786>
10000711a: 49 89 c6                    	movq	%rax, %r14
10000711d: 48 89 43 28                 	movq	%rax, 40(%rbx)
100007121: e8 54 36 00 00              	callq	13908 <dyld_stub_binder+0x10000a77a>
100007126: 48 8b 0d fb ce 01 00        	movq	118523(%rip), %rcx
10000712d: 48 8b 11                    	movq	(%rcx), %rdx
100007130: 48 89 c7                    	movq	%rax, %rdi
100007133: 4c 89 f6                    	movq	%r14, %rsi
100007136: e8 39 36 00 00              	callq	13881 <dyld_stub_binder+0x10000a774>
10000713b: 31 c0                       	xorl	%eax, %eax
10000713d: 48 83 c4 28                 	addq	$40, %rsp
100007141: 5b                          	popq	%rbx
100007142: 41 5e                       	popq	%r14
100007144: 41 5f                       	popq	%r15
100007146: 5d                          	popq	%rbp
100007147: c3                          	retq
100007148: 90                          	nop
100007149: 90                          	nop
10000714a: 90                          	nop
10000714b: 90                          	nop
10000714c: 90                          	nop
10000714d: 90                          	nop
10000714e: 90                          	nop
10000714f: 90                          	nop

0000000100007150 _mlx_new_image:
100007150: 55                          	pushq	%rbp
100007151: 48 89 e5                    	movq	%rsp, %rbp
100007154: 41 57                       	pushq	%r15
100007156: 41 56                       	pushq	%r14
100007158: 41 54                       	pushq	%r12
10000715a: 53                          	pushq	%rbx
10000715b: 41 89 d7                    	movl	%edx, %r15d
10000715e: 41 89 f6                    	movl	%esi, %r14d
100007161: 49 89 fc                    	movq	%rdi, %r12
100007164: bf 38 00 00 00              	movl	$56, %edi
100007169: e8 50 37 00 00              	callq	14160 <dyld_stub_binder+0x10000a8be>
10000716e: 48 89 c3                    	movq	%rax, %rbx
100007171: 48 85 c0                    	testq	%rax, %rax
100007174: 74 71                       	je	113 <_mlx_new_image+0x97>
100007176: 49 8b 44 24 10              	movq	16(%r12), %rax
10000717b: 48 89 43 30                 	movq	%rax, 48(%rbx)
10000717f: 49 89 5c 24 10              	movq	%rbx, 16(%r12)
100007184: 44 89 33                    	movl	%r14d, (%rbx)
100007187: 44 89 7b 04                 	movl	%r15d, 4(%rbx)
10000718b: 48 c7 43 10 00 00 00 00     	movq	$0, 16(%rbx)
100007193: f3 41 0f 2a c6              	cvtsi2ss	%r14d, %xmm0
100007198: f3 0f 11 43 18              	movss	%xmm0, 24(%rbx)
10000719d: c7 43 1c 00 00 00 00        	movl	$0, 28(%rbx)
1000071a4: f3 0f 11 43 20              	movss	%xmm0, 32(%rbx)
1000071a9: 45 0f af f7                 	imull	%r15d, %r14d
1000071ad: 41 f7 df                    	negl	%r15d
1000071b0: 0f 57 c0                    	xorps	%xmm0, %xmm0
1000071b3: f3 41 0f 2a c7              	cvtsi2ss	%r15d, %xmm0
1000071b8: f3 0f 11 43 24              	movss	%xmm0, 36(%rbx)
1000071bd: c7 43 28 00 00 00 00        	movl	$0, 40(%rbx)
1000071c4: f3 0f 11 43 2c              	movss	%xmm0, 44(%rbx)
1000071c9: 41 c1 e6 02                 	shll	$2, %r14d
1000071cd: 4d 63 f6                    	movslq	%r14d, %r14
1000071d0: 4c 89 f7                    	movq	%r14, %rdi
1000071d3: e8 e6 36 00 00              	callq	14054 <dyld_stub_binder+0x10000a8be>
1000071d8: 48 89 43 08                 	movq	%rax, 8(%rbx)
1000071dc: 48 89 c7                    	movq	%rax, %rdi
1000071df: 4c 89 f6                    	movq	%r14, %rsi
1000071e2: e8 b1 35 00 00              	callq	13745 <dyld_stub_binder+0x10000a798>
1000071e7: 48 89 d8                    	movq	%rbx, %rax
1000071ea: 5b                          	popq	%rbx
1000071eb: 41 5c                       	popq	%r12
1000071ed: 41 5e                       	popq	%r14
1000071ef: 41 5f                       	popq	%r15
1000071f1: 5d                          	popq	%rbp
1000071f2: c3                          	retq
1000071f3: 66 2e 0f 1f 84 00 00 00 00 00       	nopw	%cs:(%rax,%rax)
1000071fd: 0f 1f 00                    	nopl	(%rax)

0000000100007200 _add_img_to_ctx:
100007200: 55                          	pushq	%rbp
100007201: 48 89 e5                    	movq	%rsp, %rbp
100007204: 41 57                       	pushq	%r15
100007206: 41 56                       	pushq	%r14
100007208: 41 54                       	pushq	%r12
10000720a: 53                          	pushq	%rbx
10000720b: 49 89 f7                    	movq	%rsi, %r15
10000720e: 49 89 fe                    	movq	%rdi, %r14
100007211: 4c 8b 66 08                 	movq	8(%rsi), %r12
100007215: 4d 85 e4                    	testq	%r12, %r12
100007218: 74 19                       	je	25 <_add_img_to_ctx+0x33>
10000721a: 4c 89 e3                    	movq	%r12, %rbx
10000721d: 0f 1f 00                    	nopl	(%rax)
100007220: 4c 39 73 08                 	cmpq	%r14, 8(%rbx)
100007224: 0f 84 f2 00 00 00           	je	242 <_add_img_to_ctx+0x11c>
10000722a: 48 8b 5b 10                 	movq	16(%rbx), %rbx
10000722e: 48 85 db                    	testq	%rbx, %rbx
100007231: 75 ed                       	jne	-19 <_add_img_to_ctx+0x20>
100007233: bf 18 00 00 00              	movl	$24, %edi
100007238: e8 81 36 00 00              	callq	13953 <dyld_stub_binder+0x10000a8be>
10000723d: 48 89 c3                    	movq	%rax, %rbx
100007240: 4c 89 70 08                 	movq	%r14, 8(%rax)
100007244: 4c 89 60 10                 	movq	%r12, 16(%rax)
100007248: 49 89 47 08                 	movq	%rax, 8(%r15)
10000724c: bf 01 00 00 00              	movl	$1, %edi
100007251: 48 89 c6                    	movq	%rax, %rsi
100007254: e8 f9 35 00 00              	callq	13817 <dyld_stub_binder+0x10000a852>
100007259: 8b 33                       	movl	(%rbx), %esi
10000725b: bf e1 0d 00 00              	movl	$3553, %edi
100007260: e8 75 35 00 00              	callq	13685 <dyld_stub_binder+0x10000a7da>
100007265: bf e1 0d 00 00              	movl	$3553, %edi
10000726a: be 01 28 00 00              	movl	$10241, %esi
10000726f: ba 01 26 00 00              	movl	$9729, %edx
100007274: e8 15 36 00 00              	callq	13845 <dyld_stub_binder+0x10000a88e>
100007279: bf e1 0d 00 00              	movl	$3553, %edi
10000727e: be 00 28 00 00              	movl	$10240, %esi
100007283: ba 01 26 00 00              	movl	$9729, %edx
100007288: e8 01 36 00 00              	callq	13825 <dyld_stub_binder+0x10000a88e>
10000728d: bf e1 0d 00 00              	movl	$3553, %edi
100007292: be 02 28 00 00              	movl	$10242, %esi
100007297: ba 2f 81 00 00              	movl	$33071, %edx
10000729c: e8 ed 35 00 00              	callq	13805 <dyld_stub_binder+0x10000a88e>
1000072a1: bf e1 0d 00 00              	movl	$3553, %edi
1000072a6: be 03 28 00 00              	movl	$10243, %esi
1000072ab: ba 2f 81 00 00              	movl	$33071, %edx
1000072b0: e8 d9 35 00 00              	callq	13785 <dyld_stub_binder+0x10000a88e>
1000072b5: 41 8b 0e                    	movl	(%r14), %ecx
1000072b8: 45 8b 46 04                 	movl	4(%r14), %r8d
1000072bc: 48 83 ec 08                 	subq	$8, %rsp
1000072c0: bf e1 0d 00 00              	movl	$3553, %edi
1000072c5: 31 f6                       	xorl	%esi, %esi
1000072c7: ba 58 80 00 00              	movl	$32856, %edx
1000072cc: 45 31 c9                    	xorl	%r9d, %r9d
1000072cf: 41 ff 76 08                 	pushq	8(%r14)
1000072d3: 68 01 14 00 00              	pushq	$5121
1000072d8: 68 e1 80 00 00              	pushq	$32993
1000072dd: e8 a6 35 00 00              	callq	13734 <dyld_stub_binder+0x10000a888>
1000072e2: 48 83 c4 20                 	addq	$32, %rsp
1000072e6: 48 8d 73 04                 	leaq	4(%rbx), %rsi
1000072ea: bf 01 00 00 00              	movl	$1, %edi
1000072ef: e8 58 35 00 00              	callq	13656 <dyld_stub_binder+0x10000a84c>
1000072f4: 8b 73 04                    	movl	4(%rbx), %esi
1000072f7: bf 92 88 00 00              	movl	$34962, %edi
1000072fc: e8 d3 34 00 00              	callq	13523 <dyld_stub_binder+0x10000a7d4>
100007301: 49 83 c6 10                 	addq	$16, %r14
100007305: be 20 00 00 00              	movl	$32, %esi
10000730a: bf 92 88 00 00              	movl	$34962, %edi
10000730f: 4c 89 f2                    	movq	%r14, %rdx
100007312: b9 e8 88 00 00              	movl	$35048, %ecx
100007317: e8 d0 34 00 00              	callq	13520 <dyld_stub_binder+0x10000a7ec>
10000731c: 48 89 d8                    	movq	%rbx, %rax
10000731f: 5b                          	popq	%rbx
100007320: 41 5c                       	popq	%r12
100007322: 41 5e                       	popq	%r14
100007324: 41 5f                       	popq	%r15
100007326: 5d                          	popq	%rbp
100007327: c3                          	retq
100007328: 0f 1f 84 00 00 00 00 00     	nopl	(%rax,%rax)

0000000100007330 _mlx_put_image_to_window:
100007330: 55                          	pushq	%rbp
100007331: 48 89 e5                    	movq	%rsp, %rbp
100007334: 41 57                       	pushq	%r15
100007336: 41 56                       	pushq	%r14
100007338: 41 55                       	pushq	%r13
10000733a: 41 54                       	pushq	%r12
10000733c: 53                          	pushq	%rbx
10000733d: 50                          	pushq	%rax
10000733e: 83 7e 14 00                 	cmpl	$0, 20(%rsi)
100007342: 0f 84 89 00 00 00           	je	137 <_mlx_put_image_to_window+0xa1>
100007348: 45 89 c6                    	movl	%r8d, %r14d
10000734b: 41 89 cf                    	movl	%ecx, %r15d
10000734e: 49 89 d4                    	movq	%rdx, %r12
100007351: 48 89 f3                    	movq	%rsi, %rbx
100007354: 48 8b 3e                    	movq	(%rsi), %rdi
100007357: 48 8b 35 32 17 02 00        	movq	137010(%rip), %rsi
10000735e: ff 15 cc cc 01 00           	callq	*117964(%rip)
100007364: 4c 89 e7                    	movq	%r12, %rdi
100007367: 48 89 de                    	movq	%rbx, %rsi
10000736a: e8 91 fe ff ff              	callq	-367 <_add_img_to_ctx>
10000736f: 49 89 c5                    	movq	%rax, %r13
100007372: 8b 30                       	movl	(%rax), %esi
100007374: bf e1 0d 00 00              	movl	$3553, %edi
100007379: e8 5c 34 00 00              	callq	13404 <dyld_stub_binder+0x10000a7da>
10000737e: 41 8b 0c 24                 	movl	(%r12), %ecx
100007382: 45 8b 44 24 04              	movl	4(%r12), %r8d
100007387: 48 83 ec 08                 	subq	$8, %rsp
10000738b: bf e1 0d 00 00              	movl	$3553, %edi
100007390: 31 f6                       	xorl	%esi, %esi
100007392: ba 58 80 00 00              	movl	$32856, %edx
100007397: 45 31 c9                    	xorl	%r9d, %r9d
10000739a: 41 ff 74 24 08              	pushq	8(%r12)
10000739f: 68 01 14 00 00              	pushq	$5121
1000073a4: 68 e1 80 00 00              	pushq	$32993
1000073a9: e8 da 34 00 00              	callq	13530 <dyld_stub_binder+0x10000a888>
1000073ae: 48 83 c4 20                 	addq	$32, %rsp
1000073b2: 48 8b 3b                    	movq	(%rbx), %rdi
1000073b5: 48 8b 35 dc 16 02 00        	movq	136924(%rip), %rsi
1000073bc: 4c 89 e2                    	movq	%r12, %rdx
1000073bf: 4c 89 e9                    	movq	%r13, %rcx
1000073c2: 45 89 f8                    	movl	%r15d, %r8d
1000073c5: 45 89 f1                    	movl	%r14d, %r9d
1000073c8: ff 15 62 cc 01 00           	callq	*117858(%rip)
1000073ce: ff 43 10                    	incl	16(%rbx)
1000073d1: 48 83 c4 08                 	addq	$8, %rsp
1000073d5: 5b                          	popq	%rbx
1000073d6: 41 5c                       	popq	%r12
1000073d8: 41 5d                       	popq	%r13
1000073da: 41 5e                       	popq	%r14
1000073dc: 41 5f                       	popq	%r15
1000073de: 5d                          	popq	%rbp
1000073df: c3                          	retq

00000001000073e0 _mlx_get_data_addr:
1000073e0: 55                          	pushq	%rbp
1000073e1: 48 89 e5                    	movq	%rsp, %rbp
1000073e4: c7 06 20 00 00 00           	movl	$32, (%rsi)
1000073ea: 8b 07                       	movl	(%rdi), %eax
1000073ec: c1 e0 02                    	shll	$2, %eax
1000073ef: 89 02                       	movl	%eax, (%rdx)
1000073f1: c7 01 00 00 00 00           	movl	$0, (%rcx)
1000073f7: 48 8b 47 08                 	movq	8(%rdi), %rax
1000073fb: 5d                          	popq	%rbp
1000073fc: c3                          	retq
1000073fd: 0f 1f 00                    	nopl	(%rax)

0000000100007400 _mlx_get_color_value:
100007400: 55                          	pushq	%rbp
100007401: 48 89 e5                    	movq	%rsp, %rbp
100007404: 89 f0                       	movl	%esi, %eax
100007406: 5d                          	popq	%rbp
100007407: c3                          	retq
100007408: 0f 1f 84 00 00 00 00 00     	nopl	(%rax,%rax)

0000000100007410 _mlx_string_put:
100007410: 55                          	pushq	%rbp
100007411: 48 89 e5                    	movq	%rsp, %rbp
100007414: 41 57                       	pushq	%r15
100007416: 41 56                       	pushq	%r14
100007418: 41 55                       	pushq	%r13
10000741a: 41 54                       	pushq	%r12
10000741c: 53                          	pushq	%rbx
10000741d: 48 83 ec 18                 	subq	$24, %rsp
100007421: 4c 89 45 c0                 	movq	%r8, -64(%rbp)
100007425: 89 4d d4                    	movl	%ecx, -44(%rbp)
100007428: 83 7e 14 00                 	cmpl	$0, 20(%rsi)
10000742c: 0f 84 b6 00 00 00           	je	182 <_mlx_string_put+0xd8>
100007432: 4c 89 cb                    	movq	%r9, %rbx
100007435: 41 89 d6                    	movl	%edx, %r14d
100007438: 49 89 f4                    	movq	%rsi, %r12
10000743b: 49 89 ff                    	movq	%rdi, %r15
10000743e: 48 8b 3e                    	movq	(%rsi), %rdi
100007441: 48 8b 35 48 16 02 00        	movq	136776(%rip), %rsi
100007448: ff 15 e2 cb 01 00           	callq	*117730(%rip)
10000744e: 4c 89 7d c8                 	movq	%r15, -56(%rbp)
100007452: 49 8b 7f 30                 	movq	48(%r15), %rdi
100007456: 4c 89 e6                    	movq	%r12, %rsi
100007459: e8 a2 fd ff ff              	callq	-606 <_add_img_to_ctx>
10000745e: 49 89 c7                    	movq	%rax, %r15
100007461: 8a 03                       	movb	(%rbx), %al
100007463: 84 c0                       	testb	%al, %al
100007465: 0f 84 78 00 00 00           	je	120 <_mlx_string_put+0xd3>
10000746b: 83 45 d4 f3                 	addl	$-13, -44(%rbp)
10000746f: 4c 8b 2d 2a 16 02 00        	movq	136746(%rip), %r13
100007476: 48 ff c3                    	incq	%rbx
100007479: eb 0f                       	jmp	15 <_mlx_string_put+0x7a>
10000747b: 0f 1f 44 00 00              	nopl	(%rax,%rax)
100007480: 0f b6 03                    	movzbl	(%rbx), %eax
100007483: 48 ff c3                    	incq	%rbx
100007486: 84 c0                       	testb	%al, %al
100007488: 74 59                       	je	89 <_mlx_string_put+0xd3>
10000748a: 3c 20                       	cmpb	$32, %al
10000748c: 72 f2                       	jb	-14 <_mlx_string_put+0x70>
10000748e: 84 c0                       	testb	%al, %al
100007490: 78 ee                       	js	-18 <_mlx_string_put+0x70>
100007492: 0f b6 c0                    	movzbl	%al, %eax
100007495: 8d 04 40                    	leal	(%rax,%rax,2), %eax
100007498: 8d 04 85 80 fe ff ff        	leal	-384(,%rax,4), %eax
10000749f: 49 8b 3c 24                 	movq	(%r12), %rdi
1000074a3: 48 8b 4d c8                 	movq	-56(%rbp), %rcx
1000074a7: 48 8b 51 30                 	movq	48(%rcx), %rdx
1000074ab: 48 83 ec 08                 	subq	$8, %rsp
1000074af: 4c 89 ee                    	movq	%r13, %rsi
1000074b2: 4c 89 f9                    	movq	%r15, %rcx
1000074b5: 45 89 f0                    	movl	%r14d, %r8d
1000074b8: 44 8b 4d d4                 	movl	-44(%rbp), %r9d
1000074bc: 6a 00                       	pushq	$0
1000074be: 50                          	pushq	%rax
1000074bf: ff 75 c0                    	pushq	-64(%rbp)
1000074c2: ff 15 68 cb 01 00           	callq	*117608(%rip)
1000074c8: 48 83 c4 20                 	addq	$32, %rsp
1000074cc: 0f 57 c0                    	xorps	%xmm0, %xmm0
1000074cf: f2 41 0f 2a c6              	cvtsi2sd	%r14d, %xmm0
1000074d4: f2 0f 58 05 d4 c0 01 00     	addsd	114900(%rip), %xmm0
1000074dc: f2 44 0f 2c f0              	cvttsd2si	%xmm0, %r14d
1000074e1: eb 9d                       	jmp	-99 <_mlx_string_put+0x70>
1000074e3: 41 ff 44 24 10              	incl	16(%r12)
1000074e8: 31 c0                       	xorl	%eax, %eax
1000074ea: 48 83 c4 18                 	addq	$24, %rsp
1000074ee: 5b                          	popq	%rbx
1000074ef: 41 5c                       	popq	%r12
1000074f1: 41 5d                       	popq	%r13
1000074f3: 41 5e                       	popq	%r14
1000074f5: 41 5f                       	popq	%r15
1000074f7: 5d                          	popq	%rbp
1000074f8: c3                          	retq
1000074f9: 0f 1f 80 00 00 00 00        	nopl	(%rax)

0000000100007500 _mlx_destroy_image:
100007500: 55                          	pushq	%rbp
100007501: 48 89 e5                    	movq	%rsp, %rbp
100007504: 41 57                       	pushq	%r15
100007506: 41 56                       	pushq	%r14
100007508: 41 55                       	pushq	%r13
10000750a: 41 54                       	pushq	%r12
10000750c: 53                          	pushq	%rbx
10000750d: 48 83 ec 58                 	subq	$88, %rsp
100007511: 49 89 f7                    	movq	%rsi, %r15
100007514: 48 8b 47 10                 	movq	16(%rdi), %rax
100007518: 48 89 45 b8                 	movq	%rax, -72(%rbp)
10000751c: 48 85 c0                    	testq	%rax, %rax
10000751f: 74 30                       	je	48 <_mlx_destroy_image+0x51>
100007521: 48 8d 4d 88                 	leaq	-120(%rbp), %rcx
100007525: 66 2e 0f 1f 84 00 00 00 00 00       	nopw	%cs:(%rax,%rax)
10000752f: 90                          	nop
100007530: 4c 39 f8                    	cmpq	%r15, %rax
100007533: 75 08                       	jne	8 <_mlx_destroy_image+0x3d>
100007535: 49 8b 47 30                 	movq	48(%r15), %rax
100007539: 48 89 41 30                 	movq	%rax, 48(%rcx)
10000753d: 48 85 c0                    	testq	%rax, %rax
100007540: 74 0f                       	je	15 <_mlx_destroy_image+0x51>
100007542: 48 89 c1                    	movq	%rax, %rcx
100007545: 48 8b 50 30                 	movq	48(%rax), %rdx
100007549: 48 89 d0                    	movq	%rdx, %rax
10000754c: 48 85 d2                    	testq	%rdx, %rdx
10000754f: 75 df                       	jne	-33 <_mlx_destroy_image+0x30>
100007551: 48 8b 45 b8                 	movq	-72(%rbp), %rax
100007555: 48 89 47 10                 	movq	%rax, 16(%rdi)
100007559: 48 8b 5f 08                 	movq	8(%rdi), %rbx
10000755d: 48 85 db                    	testq	%rbx, %rbx
100007560: 0f 84 9c 00 00 00           	je	156 <_mlx_destroy_image+0x102>
100007566: 4c 8b 2d c3 ca 01 00        	movq	117443(%rip), %r13
10000756d: eb 16                       	jmp	22 <_mlx_destroy_image+0x85>
10000756f: 90                          	nop
100007570: 48 8b 45 d0                 	movq	-48(%rbp), %rax
100007574: 48 89 43 08                 	movq	%rax, 8(%rbx)
100007578: 48 8b 5b 18                 	movq	24(%rbx), %rbx
10000757c: 48 85 db                    	testq	%rbx, %rbx
10000757f: 0f 84 7d 00 00 00           	je	125 <_mlx_destroy_image+0x102>
100007585: 48 8b 43 08                 	movq	8(%rbx), %rax
100007589: 48 89 45 d0                 	movq	%rax, -48(%rbp)
10000758d: 48 85 c0                    	testq	%rax, %rax
100007590: 74 de                       	je	-34 <_mlx_destroy_image+0x70>
100007592: 4c 8b 35 f7 14 02 00        	movq	136439(%rip), %r14
100007599: 4c 8d 65 c0                 	leaq	-64(%rbp), %r12
10000759d: 0f 1f 00                    	nopl	(%rax)
1000075a0: 4c 39 78 08                 	cmpq	%r15, 8(%rax)
1000075a4: 75 43                       	jne	67 <_mlx_destroy_image+0xe9>
1000075a6: 48 8b 3b                    	movq	(%rbx), %rdi
1000075a9: 4c 89 f6                    	movq	%r14, %rsi
1000075ac: 41 ff d5                    	callq	*%r13
1000075af: 49 8b 74 24 10              	movq	16(%r12), %rsi
1000075b4: 48 83 c6 04                 	addq	$4, %rsi
1000075b8: bf 01 00 00 00              	movl	$1, %edi
1000075bd: e8 4e 32 00 00              	callq	12878 <dyld_stub_binder+0x10000a810>
1000075c2: 49 8b 74 24 10              	movq	16(%r12), %rsi
1000075c7: bf 01 00 00 00              	movl	$1, %edi
1000075cc: e8 51 32 00 00              	callq	12881 <dyld_stub_binder+0x10000a822>
1000075d1: 49 8b 7c 24 10              	movq	16(%r12), %rdi
1000075d6: 48 8b 47 10                 	movq	16(%rdi), %rax
1000075da: 49 89 44 24 10              	movq	%rax, 16(%r12)
1000075df: e8 d8 31 00 00              	callq	12760 <dyld_stub_binder+0x10000a7bc>
1000075e4: 49 8b 44 24 10              	movq	16(%r12), %rax
1000075e9: 48 85 c0                    	testq	%rax, %rax
1000075ec: 74 82                       	je	-126 <_mlx_destroy_image+0x70>
1000075ee: 49 89 c4                    	movq	%rax, %r12
1000075f1: 48 8b 48 10                 	movq	16(%rax), %rcx
1000075f5: 48 89 c8                    	movq	%rcx, %rax
1000075f8: 48 85 c9                    	testq	%rcx, %rcx
1000075fb: 75 a3                       	jne	-93 <_mlx_destroy_image+0xa0>
1000075fd: e9 6e ff ff ff              	jmp	-146 <_mlx_destroy_image+0x70>
100007602: 49 8b 7f 08                 	movq	8(%r15), %rdi
100007606: e8 b1 31 00 00              	callq	12721 <dyld_stub_binder+0x10000a7bc>
10000760b: 4c 89 ff                    	movq	%r15, %rdi
10000760e: e8 a9 31 00 00              	callq	12713 <dyld_stub_binder+0x10000a7bc>
100007613: 31 c0                       	xorl	%eax, %eax
100007615: 48 83 c4 58                 	addq	$88, %rsp
100007619: 5b                          	popq	%rbx
10000761a: 41 5c                       	popq	%r12
10000761c: 41 5d                       	popq	%r13
10000761e: 41 5e                       	popq	%r14
100007620: 41 5f                       	popq	%r15
100007622: 5d                          	popq	%rbp
100007623: c3                          	retq
100007624: 90                          	nop
100007625: 90                          	nop
100007626: 90                          	nop
100007627: 90                          	nop
100007628: 90                          	nop
100007629: 90                          	nop
10000762a: 90                          	nop
10000762b: 90                          	nop
10000762c: 90                          	nop
10000762d: 90                          	nop
10000762e: 90                          	nop
10000762f: 90                          	nop

0000000100007630 _mlx_int_get_line:
100007630: 55                          	pushq	%rbp
100007631: 48 89 e5                    	movq	%rsp, %rbp
100007634: 41 57                       	pushq	%r15
100007636: 41 56                       	pushq	%r14
100007638: 41 54                       	pushq	%r12
10000763a: 53                          	pushq	%rbx
10000763b: 89 d3                       	movl	%edx, %ebx
10000763d: 49 89 f7                    	movq	%rsi, %r15
100007640: 49 89 fe                    	movq	%rdi, %r14
100007643: 48 63 3e                    	movslq	(%rsi), %rdi
100007646: 29 fa                       	subl	%edi, %edx
100007648: 4c 01 f7                    	addq	%r14, %rdi
10000764b: 48 8d 35 41 58 00 00        	leaq	22593(%rip), %rsi
100007652: e8 b9 0a 00 00              	callq	2745 <_mlx_int_str_str>
100007657: 83 f8 ff                    	cmpl	$-1, %eax
10000765a: 74 5a                       	je	90 <_mlx_int_get_line+0x86>
10000765c: 49 63 0f                    	movslq	(%r15), %rcx
10000765f: 4c 63 e0                    	movslq	%eax, %r12
100007662: f7 d0                       	notl	%eax
100007664: 01 d8                       	addl	%ebx, %eax
100007666: 29 c8                       	subl	%ecx, %eax
100007668: 4c 01 f1                    	addq	%r14, %rcx
10000766b: 49 8d 7c 0c 01              	leaq	1(%r12,%rcx), %rdi
100007670: 48 8d 35 1c 58 00 00        	leaq	22556(%rip), %rsi
100007677: 89 c2                       	movl	%eax, %edx
100007679: e8 92 0a 00 00              	callq	2706 <_mlx_int_str_str>
10000767e: 83 f8 ff                    	cmpl	$-1, %eax
100007681: 74 33                       	je	51 <_mlx_int_get_line+0x86>
100007683: 49 63 0f                    	movslq	(%r15), %rcx
100007686: 4c 01 f1                    	addq	%r14, %rcx
100007689: 41 c6 04 0c 00              	movb	$0, (%r12,%rcx)
10000768e: 49 63 0f                    	movslq	(%r15), %rcx
100007691: 4c 01 f1                    	addq	%r14, %rcx
100007694: 4c 01 e1                    	addq	%r12, %rcx
100007697: 48 63 d0                    	movslq	%eax, %rdx
10000769a: c6 44 0a 01 00              	movb	$0, 1(%rdx,%rcx)
10000769f: 41 8b 0f                    	movl	(%r15), %ecx
1000076a2: 44 01 e1                    	addl	%r12d, %ecx
1000076a5: 8d 44 08 02                 	leal	2(%rax,%rcx), %eax
1000076a9: 41 89 07                    	movl	%eax, (%r15)
1000076ac: 48 63 c1                    	movslq	%ecx, %rax
1000076af: 4a 8d 44 30 01              	leaq	1(%rax,%r14), %rax
1000076b4: eb 02                       	jmp	2 <_mlx_int_get_line+0x88>
1000076b6: 31 c0                       	xorl	%eax, %eax
1000076b8: 5b                          	popq	%rbx
1000076b9: 41 5c                       	popq	%r12
1000076bb: 41 5e                       	popq	%r14
1000076bd: 41 5f                       	popq	%r15
1000076bf: 5d                          	popq	%rbp
1000076c0: c3                          	retq
1000076c1: 66 2e 0f 1f 84 00 00 00 00 00       	nopw	%cs:(%rax,%rax)
1000076cb: 0f 1f 44 00 00              	nopl	(%rax,%rax)

00000001000076d0 _mlx_int_static_line:
1000076d0: 55                          	pushq	%rbp
1000076d1: 48 89 e5                    	movq	%rsp, %rbp
1000076d4: 41 57                       	pushq	%r15
1000076d6: 41 56                       	pushq	%r14
1000076d8: 53                          	pushq	%rbx
1000076d9: 50                          	pushq	%rax
1000076da: 48 63 06                    	movslq	(%rsi), %rax
1000076dd: 8d 48 01                    	leal	1(%rax), %ecx
1000076e0: 89 0e                       	movl	%ecx, (%rsi)
1000076e2: 4c 8b 34 c7                 	movq	(%rdi,%rax,8), %r14
1000076e6: 4c 89 f7                    	movq	%r14, %rdi
1000076e9: e8 24 32 00 00              	callq	12836 <dyld_stub_binder+0x10000a912>
1000076ee: 48 89 c3                    	movq	%rax, %rbx
1000076f1: 48 8b 3d 78 44 02 00        	movq	148600(%rip), %rdi
1000076f8: 39 1d 7a 44 02 00           	cmpl	%ebx, 148602(%rip)
1000076fe: 7d 2f                       	jge	47 <_mlx_int_static_line+0x5f>
100007700: 48 85 ff                    	testq	%rdi, %rdi
100007703: 74 05                       	je	5 <_mlx_int_static_line+0x3a>
100007705: e8 b2 30 00 00              	callq	12466 <dyld_stub_binder+0x10000a7bc>
10000770a: 8d 43 01                    	leal	1(%rbx), %eax
10000770d: 4c 63 f8                    	movslq	%eax, %r15
100007710: 4c 89 ff                    	movq	%r15, %rdi
100007713: e8 a6 31 00 00              	callq	12710 <dyld_stub_binder+0x10000a8be>
100007718: 48 89 05 51 44 02 00        	movq	%rax, 148561(%rip)
10000771f: 48 85 c0                    	testq	%rax, %rax
100007722: 74 25                       	je	37 <_mlx_int_static_line+0x79>
100007724: 48 89 c7                    	movq	%rax, %rdi
100007727: 89 1d 4b 44 02 00           	movl	%ebx, 148555(%rip)
10000772d: eb 06                       	jmp	6 <_mlx_int_static_line+0x65>
10000772f: 8d 43 01                    	leal	1(%rbx), %eax
100007732: 4c 63 f8                    	movslq	%eax, %r15
100007735: 4c 89 f6                    	movq	%r14, %rsi
100007738: 4c 89 fa                    	movq	%r15, %rdx
10000773b: e8 cc 31 00 00              	callq	12748 <dyld_stub_binder+0x10000a90c>
100007740: 48 8b 05 29 44 02 00        	movq	148521(%rip), %rax
100007747: eb 02                       	jmp	2 <_mlx_int_static_line+0x7b>
100007749: 31 c0                       	xorl	%eax, %eax
10000774b: 48 83 c4 08                 	addq	$8, %rsp
10000774f: 5b                          	popq	%rbx
100007750: 41 5e                       	popq	%r14
100007752: 41 5f                       	popq	%r15
100007754: 5d                          	popq	%rbp
100007755: c3                          	retq
100007756: 66 2e 0f 1f 84 00 00 00 00 00       	nopw	%cs:(%rax,%rax)

0000000100007760 _mlx_int_get_col_name:
100007760: 55                          	pushq	%rbp
100007761: 48 89 e5                    	movq	%rsp, %rbp
100007764: 85 f6                       	testl	%esi, %esi
100007766: 74 13                       	je	19 <_mlx_int_get_col_name+0x1b>
100007768: 8d 46 ff                    	leal	-1(%rsi), %eax
10000776b: 41 89 f0                    	movl	%esi, %r8d
10000776e: 41 83 e0 03                 	andl	$3, %r8d
100007772: 83 f8 03                    	cmpl	$3, %eax
100007775: 73 08                       	jae	8 <_mlx_int_get_col_name+0x1f>
100007777: 31 c0                       	xorl	%eax, %eax
100007779: eb 41                       	jmp	65 <_mlx_int_get_col_name+0x5c>
10000777b: 31 c0                       	xorl	%eax, %eax
10000777d: 5d                          	popq	%rbp
10000777e: c3                          	retq
10000777f: 44 89 c2                    	movl	%r8d, %edx
100007782: 29 f2                       	subl	%esi, %edx
100007784: 31 c0                       	xorl	%eax, %eax
100007786: 66 2e 0f 1f 84 00 00 00 00 00       	nopw	%cs:(%rax,%rax)
100007790: c1 e0 08                    	shll	$8, %eax
100007793: 0f be 0f                    	movsbl	(%rdi), %ecx
100007796: 01 c1                       	addl	%eax, %ecx
100007798: c1 e1 08                    	shll	$8, %ecx
10000779b: 0f be 47 01                 	movsbl	1(%rdi), %eax
10000779f: 01 c8                       	addl	%ecx, %eax
1000077a1: c1 e0 08                    	shll	$8, %eax
1000077a4: 0f be 4f 02                 	movsbl	2(%rdi), %ecx
1000077a8: 01 c1                       	addl	%eax, %ecx
1000077aa: c1 e1 08                    	shll	$8, %ecx
1000077ad: 0f be 47 03                 	movsbl	3(%rdi), %eax
1000077b1: 48 83 c7 04                 	addq	$4, %rdi
1000077b5: 01 c8                       	addl	%ecx, %eax
1000077b7: 83 c2 04                    	addl	$4, %edx
1000077ba: 75 d4                       	jne	-44 <_mlx_int_get_col_name+0x30>
1000077bc: 45 85 c0                    	testl	%r8d, %r8d
1000077bf: 74 1f                       	je	31 <_mlx_int_get_col_name+0x80>
1000077c1: 83 e6 03                    	andl	$3, %esi
1000077c4: 31 c9                       	xorl	%ecx, %ecx
1000077c6: 66 2e 0f 1f 84 00 00 00 00 00       	nopw	%cs:(%rax,%rax)
1000077d0: c1 e0 08                    	shll	$8, %eax
1000077d3: 0f be 14 0f                 	movsbl	(%rdi,%rcx), %edx
1000077d7: 01 d0                       	addl	%edx, %eax
1000077d9: 48 ff c1                    	incq	%rcx
1000077dc: 39 ce                       	cmpl	%ecx, %esi
1000077de: 75 f0                       	jne	-16 <_mlx_int_get_col_name+0x70>
1000077e0: 5d                          	popq	%rbp
1000077e1: c3                          	retq
1000077e2: 66 2e 0f 1f 84 00 00 00 00 00       	nopw	%cs:(%rax,%rax)
1000077ec: 0f 1f 40 00                 	nopl	(%rax)

00000001000077f0 _mlx_int_get_text_rgb:
1000077f0: 55                          	pushq	%rbp
1000077f1: 48 89 e5                    	movq	%rsp, %rbp
1000077f4: 41 57                       	pushq	%r15
1000077f6: 41 56                       	pushq	%r14
1000077f8: 53                          	pushq	%rbx
1000077f9: 48 83 ec 48                 	subq	$72, %rsp
1000077fd: 49 89 ff                    	movq	%rdi, %r15
100007800: 48 8b 05 09 c8 01 00        	movq	116745(%rip), %rax
100007807: 48 8b 00                    	movq	(%rax), %rax
10000780a: 48 89 45 e0                 	movq	%rax, -32(%rbp)
10000780e: 80 3f 23                    	cmpb	$35, (%rdi)
100007811: 75 17                       	jne	23 <_mlx_int_get_text_rgb+0x3a>
100007813: 49 ff c7                    	incq	%r15
100007816: 4c 89 ff                    	movq	%r15, %rdi
100007819: 31 f6                       	xorl	%esi, %esi
10000781b: ba 10 00 00 00              	movl	$16, %edx
100007820: e8 f3 30 00 00              	callq	12531 <dyld_stub_binder+0x10000a918>
100007825: 49 89 c6                    	movq	%rax, %r14
100007828: eb 64                       	jmp	100 <_mlx_int_get_text_rgb+0x9e>
10000782a: 49 89 f0                    	movq	%rsi, %r8
10000782d: 48 85 f6                    	testq	%rsi, %rsi
100007830: 74 20                       	je	32 <_mlx_int_get_text_rgb+0x62>
100007832: 4c 8d 75 a0                 	leaq	-96(%rbp), %r14
100007836: 48 8d 15 58 56 00 00        	leaq	22104(%rip), %rdx
10000783d: be 40 00 00 00              	movl	$64, %esi
100007842: 4c 89 f7                    	movq	%r14, %rdi
100007845: 4c 89 f9                    	movq	%r15, %rcx
100007848: 31 c0                       	xorl	%eax, %eax
10000784a: e8 a5 30 00 00              	callq	12453 <dyld_stub_binder+0x10000a8f4>
10000784f: 4d 89 f7                    	movq	%r14, %r15
100007852: 48 8b 3d f7 13 02 00        	movq	136183(%rip), %rdi
100007859: 45 31 f6                    	xorl	%r14d, %r14d
10000785c: 48 85 ff                    	testq	%rdi, %rdi
10000785f: 74 2d                       	je	45 <_mlx_int_get_text_rgb+0x9e>
100007861: 48 8d 1d f8 13 02 00        	leaq	136184(%rip), %rbx
100007868: 0f 1f 84 00 00 00 00 00     	nopl	(%rax,%rax)
100007870: 4c 89 fe                    	movq	%r15, %rsi
100007873: e8 82 30 00 00              	callq	12418 <dyld_stub_binder+0x10000a8fa>
100007878: 85 c0                       	testl	%eax, %eax
10000787a: 74 0e                       	je	14 <_mlx_int_get_text_rgb+0x9a>
10000787c: 48 8b 3b                    	movq	(%rbx), %rdi
10000787f: 48 83 c3 10                 	addq	$16, %rbx
100007883: 48 85 ff                    	testq	%rdi, %rdi
100007886: 75 e8                       	jne	-24 <_mlx_int_get_text_rgb+0x80>
100007888: eb 04                       	jmp	4 <_mlx_int_get_text_rgb+0x9e>
10000788a: 44 8b 73 f8                 	movl	-8(%rbx), %r14d
10000788e: 48 8b 05 7b c7 01 00        	movq	116603(%rip), %rax
100007895: 48 8b 00                    	movq	(%rax), %rax
100007898: 48 3b 45 e0                 	cmpq	-32(%rbp), %rax
10000789c: 75 0e                       	jne	14 <_mlx_int_get_text_rgb+0xbc>
10000789e: 44 89 f0                    	movl	%r14d, %eax
1000078a1: 48 83 c4 48                 	addq	$72, %rsp
1000078a5: 5b                          	popq	%rbx
1000078a6: 41 5e                       	popq	%r14
1000078a8: 41 5f                       	popq	%r15
1000078aa: 5d                          	popq	%rbp
1000078ab: c3                          	retq
1000078ac: e8 ed 2e 00 00              	callq	12013 <dyld_stub_binder+0x10000a79e>
1000078b1: 66 2e 0f 1f 84 00 00 00 00 00       	nopw	%cs:(%rax,%rax)
1000078bb: 0f 1f 44 00 00              	nopl	(%rax,%rax)

00000001000078c0 _mlx_int_xpm_set_pixel:
1000078c0: 55                          	pushq	%rbp
1000078c1: 48 89 e5                    	movq	%rsp, %rbp
1000078c4: 49 63 c0                    	movslq	%r8d, %rax
1000078c7: 89 0c 86                    	movl	%ecx, (%rsi,%rax,4)
1000078ca: 5d                          	popq	%rbp
1000078cb: c3                          	retq
1000078cc: 0f 1f 40 00                 	nopl	(%rax)

00000001000078d0 _mlx_int_parse_xpm:
1000078d0: 55                          	pushq	%rbp
1000078d1: 48 89 e5                    	movq	%rsp, %rbp
1000078d4: 41 57                       	pushq	%r15
1000078d6: 41 56                       	pushq	%r14
1000078d8: 41 55                       	pushq	%r13
1000078da: 41 54                       	pushq	%r12
1000078dc: 53                          	pushq	%rbx
1000078dd: 48 81 ec c8 00 00 00        	subq	$200, %rsp
1000078e4: 49 89 cc                    	movq	%rcx, %r12
1000078e7: 41 89 d6                    	movl	%edx, %r14d
1000078ea: 48 89 f3                    	movq	%rsi, %rbx
1000078ed: 49 89 fd                    	movq	%rdi, %r13
1000078f0: 48 8b 05 19 c7 01 00        	movq	116505(%rip), %rax
1000078f7: 48 8b 00                    	movq	(%rax), %rax
1000078fa: 48 89 45 d0                 	movq	%rax, -48(%rbp)
1000078fe: c7 85 78 ff ff ff 00 00 00 00       	movl	$0, -136(%rbp)
100007908: 45 31 ff                    	xorl	%r15d, %r15d
10000790b: 48 8d b5 78 ff ff ff        	leaq	-136(%rbp), %rsi
100007912: 48 89 df                    	movq	%rbx, %rdi
100007915: 31 c0                       	xorl	%eax, %eax
100007917: ff d1                       	callq	*%rcx
100007919: 48 85 c0                    	testq	%rax, %rax
10000791c: 0f 84 b0 00 00 00           	je	176 <_mlx_int_parse_xpm+0x102>
100007922: 48 89 c7                    	movq	%rax, %rdi
100007925: e8 06 09 00 00              	callq	2310 <_mlx_int_str_to_wordtab>
10000792a: 48 85 c0                    	testq	%rax, %rax
10000792d: 0f 84 9c 00 00 00           	je	156 <_mlx_int_parse_xpm+0xff>
100007933: 49 89 c7                    	movq	%rax, %r15
100007936: 48 89 9d 20 ff ff ff        	movq	%rbx, -224(%rbp)
10000793d: 44 89 b5 70 ff ff ff        	movl	%r14d, -144(%rbp)
100007944: 48 8b 38                    	movq	(%rax), %rdi
100007947: e8 58 2e 00 00              	callq	11864 <dyld_stub_binder+0x10000a7a4>
10000794c: 89 85 74 ff ff ff           	movl	%eax, -140(%rbp)
100007952: 85 c0                       	testl	%eax, %eax
100007954: 74 71                       	je	113 <_mlx_int_parse_xpm+0xf7>
100007956: 49 8b 7f 08                 	movq	8(%r15), %rdi
10000795a: e8 45 2e 00 00              	callq	11845 <dyld_stub_binder+0x10000a7a4>
10000795f: 89 85 7c ff ff ff           	movl	%eax, -132(%rbp)
100007965: 85 c0                       	testl	%eax, %eax
100007967: 74 5e                       	je	94 <_mlx_int_parse_xpm+0xf7>
100007969: 49 8b 7f 10                 	movq	16(%r15), %rdi
10000796d: e8 32 2e 00 00              	callq	11826 <dyld_stub_binder+0x10000a7a4>
100007972: 89 85 6c ff ff ff           	movl	%eax, -148(%rbp)
100007978: 85 c0                       	testl	%eax, %eax
10000797a: 74 4b                       	je	75 <_mlx_int_parse_xpm+0xf7>
10000797c: 49 8b 7f 18                 	movq	24(%r15), %rdi
100007980: e8 1f 2e 00 00              	callq	11807 <dyld_stub_binder+0x10000a7a4>
100007985: 85 c0                       	testl	%eax, %eax
100007987: 74 3e                       	je	62 <_mlx_int_parse_xpm+0xf7>
100007989: 41 89 c6                    	movl	%eax, %r14d
10000798c: 4c 89 ff                    	movq	%r15, %rdi
10000798f: e8 28 2e 00 00              	callq	11816 <dyld_stub_binder+0x10000a7bc>
100007994: 48 63 9d 6c ff ff ff        	movslq	-148(%rbp), %rbx
10000799b: 41 83 fe 02                 	cmpl	$2, %r14d
10000799f: 7f 5a                       	jg	90 <_mlx_int_parse_xpm+0x12b>
1000079a1: b8 00 00 04 00              	movl	$262144, %eax
1000079a6: bf 00 04 00 00              	movl	$1024, %edi
1000079ab: 48 0f 44 f8                 	cmoveq	%rax, %rdi
1000079af: e8 0a 2f 00 00              	callq	12042 <dyld_stub_binder+0x10000a8be>
1000079b4: 31 c9                       	xorl	%ecx, %ecx
1000079b6: 48 89 4d 80                 	movq	%rcx, -128(%rbp)
1000079ba: 48 85 c0                    	testq	%rax, %rax
1000079bd: 74 10                       	je	16 <_mlx_int_parse_xpm+0xff>
1000079bf: 48 89 45 88                 	movq	%rax, -120(%rbp)
1000079c3: 31 c0                       	xorl	%eax, %eax
1000079c5: eb 52                       	jmp	82 <_mlx_int_parse_xpm+0x149>
1000079c7: 4c 89 ff                    	movq	%r15, %rdi
1000079ca: e8 ed 2d 00 00              	callq	11757 <dyld_stub_binder+0x10000a7bc>
1000079cf: 45 31 ff                    	xorl	%r15d, %r15d
1000079d2: 48 8b 05 37 c6 01 00        	movq	116279(%rip), %rax
1000079d9: 48 8b 00                    	movq	(%rax), %rax
1000079dc: 48 3b 45 d0                 	cmpq	-48(%rbp), %rax
1000079e0: 0f 85 ec 04 00 00           	jne	1260 <_mlx_int_parse_xpm+0x602>
1000079e6: 4c 89 f8                    	movq	%r15, %rax
1000079e9: 48 81 c4 c8 00 00 00        	addq	$200, %rsp
1000079f0: 5b                          	popq	%rbx
1000079f1: 41 5c                       	popq	%r12
1000079f3: 41 5d                       	popq	%r13
1000079f5: 41 5e                       	popq	%r14
1000079f7: 41 5f                       	popq	%r15
1000079f9: 5d                          	popq	%rbp
1000079fa: c3                          	retq
1000079fb: 48 8d 3c dd 00 00 00 00     	leaq	(,%rbx,8), %rdi
100007a03: e8 b6 2e 00 00              	callq	11958 <dyld_stub_binder+0x10000a8be>
100007a08: 48 85 c0                    	testq	%rax, %rax
100007a0b: 74 c2                       	je	-62 <_mlx_int_parse_xpm+0xff>
100007a0d: 48 89 45 80                 	movq	%rax, -128(%rbp)
100007a11: 31 c0                       	xorl	%eax, %eax
100007a13: 48 89 45 88                 	movq	%rax, -120(%rbp)
100007a17: b0 01                       	movb	$1, %al
100007a19: 48 89 85 38 ff ff ff        	movq	%rax, -200(%rbp)
100007a20: 49 63 c6                    	movslq	%r14d, %rax
100007a23: 48 89 85 30 ff ff ff        	movq	%rax, -208(%rbp)
100007a2a: 41 8d 46 ff                 	leal	-1(%r14), %eax
100007a2e: 89 85 64 ff ff ff           	movl	%eax, -156(%rbp)
100007a34: 44 89 f0                    	movl	%r14d, %eax
100007a37: 83 e0 03                    	andl	$3, %eax
100007a3a: 89 85 68 ff ff ff           	movl	%eax, -152(%rbp)
100007a40: 44 29 f0                    	subl	%r14d, %eax
100007a43: 89 85 2c ff ff ff           	movl	%eax, -212(%rbp)
100007a49: 44 89 f0                    	movl	%r14d, %eax
100007a4c: 83 e0 03                    	andl	$3, %eax
100007a4f: 48 89 85 10 ff ff ff        	movq	%rax, -240(%rbp)
100007a56: 48 89 9d 18 ff ff ff        	movq	%rbx, -232(%rbp)
100007a5d: 4c 89 ad 58 ff ff ff        	movq	%r13, -168(%rbp)
100007a64: 4c 89 a5 48 ff ff ff        	movq	%r12, -184(%rbp)
100007a6b: eb 31                       	jmp	49 <_mlx_int_parse_xpm+0x1ce>
100007a6d: 48 8b 4d 80                 	movq	-128(%rbp), %rcx
100007a71: 42 89 5c c1 f8              	movl	%ebx, -8(%rcx,%r8,8)
100007a76: 48 8b 9d 50 ff ff ff        	movq	-176(%rbp), %rbx
100007a7d: 48 8d 4c d9 04              	leaq	4(%rcx,%rbx,8), %rcx
100007a82: 4c 8b a5 48 ff ff ff        	movq	-184(%rbp), %r12
100007a89: 89 01                       	movl	%eax, (%rcx)
100007a8b: 4c 89 ff                    	movq	%r15, %rdi
100007a8e: e8 29 2d 00 00              	callq	11561 <dyld_stub_binder+0x10000a7bc>
100007a93: 48 89 d8                    	movq	%rbx, %rax
100007a96: 85 c0                       	testl	%eax, %eax
100007a98: 0f 84 f0 01 00 00           	je	496 <_mlx_int_parse_xpm+0x3be>
100007a9e: 48 8b bd 20 ff ff ff        	movq	-224(%rbp), %rdi
100007aa5: 48 8d b5 78 ff ff ff        	leaq	-136(%rbp), %rsi
100007aac: 8b 95 70 ff ff ff           	movl	-144(%rbp), %edx
100007ab2: 31 c0                       	xorl	%eax, %eax
100007ab4: 41 ff d4                    	callq	*%r12
100007ab7: 48 85 c0                    	testq	%rax, %rax
100007aba: 0f 84 9a 03 00 00           	je	922 <_mlx_int_parse_xpm+0x58a>
100007ac0: 49 89 c4                    	movq	%rax, %r12
100007ac3: 48 8b 85 30 ff ff ff        	movq	-208(%rbp), %rax
100007aca: 49 8d 3c 04                 	leaq	(%r12,%rax), %rdi
100007ace: e8 5d 07 00 00              	callq	1885 <_mlx_int_str_to_wordtab>
100007ad3: 48 85 c0                    	testq	%rax, %rax
100007ad6: 0f 84 7e 03 00 00           	je	894 <_mlx_int_parse_xpm+0x58a>
100007adc: 49 89 c7                    	movq	%rax, %r15
100007adf: 48 89 9d 40 ff ff ff        	movq	%rbx, -192(%rbp)
100007ae6: 48 8d 43 ff                 	leaq	-1(%rbx), %rax
100007aea: 48 89 85 50 ff ff ff        	movq	%rax, -176(%rbp)
100007af1: 31 db                       	xorl	%ebx, %ebx
100007af3: 66 2e 0f 1f 84 00 00 00 00 00       	nopw	%cs:(%rax,%rax)
100007afd: 0f 1f 00                    	nopl	(%rax)
100007b00: 49 8b 3c df                 	movq	(%r15,%rbx,8), %rdi
100007b04: 48 85 ff                    	testq	%rdi, %rdi
100007b07: 74 13                       	je	19 <_mlx_int_parse_xpm+0x24c>
100007b09: 48 ff c3                    	incq	%rbx
100007b0c: 48 8d 35 88 53 00 00        	leaq	21384(%rip), %rsi
100007b13: e8 e8 2d 00 00              	callq	11752 <dyld_stub_binder+0x10000a900>
100007b18: 85 c0                       	testl	%eax, %eax
100007b1a: 75 e4                       	jne	-28 <_mlx_int_parse_xpm+0x230>
100007b1c: 48 63 c3                    	movslq	%ebx, %rax
100007b1f: 49 8b 1c c7                 	movq	(%r15,%rax,8), %rbx
100007b23: 48 85 db                    	testq	%rbx, %rbx
100007b26: 0f 84 4c 01 00 00           	je	332 <_mlx_int_parse_xpm+0x3a8>
100007b2c: 80 3b 23                    	cmpb	$35, (%rbx)
100007b2f: 75 17                       	jne	23 <_mlx_int_parse_xpm+0x278>
100007b31: 48 ff c3                    	incq	%rbx
100007b34: 48 89 df                    	movq	%rbx, %rdi
100007b37: 31 f6                       	xorl	%esi, %esi
100007b39: ba 10 00 00 00              	movl	$16, %edx
100007b3e: e8 d5 2d 00 00              	callq	11733 <dyld_stub_binder+0x10000a918>
100007b43: e9 8b 00 00 00              	jmp	139 <_mlx_int_parse_xpm+0x303>
100007b48: 4d 8b 44 c7 08              	movq	8(%r15,%rax,8), %r8
100007b4d: 4d 85 c0                    	testq	%r8, %r8
100007b50: 74 27                       	je	39 <_mlx_int_parse_xpm+0x2a9>
100007b52: be 40 00 00 00              	movl	$64, %esi
100007b57: 4c 8d 6d 90                 	leaq	-112(%rbp), %r13
100007b5b: 4c 89 ef                    	movq	%r13, %rdi
100007b5e: 48 8d 15 30 53 00 00        	leaq	21296(%rip), %rdx
100007b65: 48 89 d9                    	movq	%rbx, %rcx
100007b68: 31 c0                       	xorl	%eax, %eax
100007b6a: e8 85 2d 00 00              	callq	11653 <dyld_stub_binder+0x10000a8f4>
100007b6f: 4c 89 eb                    	movq	%r13, %rbx
100007b72: 4c 8b ad 58 ff ff ff        	movq	-168(%rbp), %r13
100007b79: 48 8b 75 88                 	movq	-120(%rbp), %rsi
100007b7d: 48 8b 3d cc 10 02 00        	movq	135372(%rip), %rdi
100007b84: 31 c0                       	xorl	%eax, %eax
100007b86: 48 85 ff                    	testq	%rdi, %rdi
100007b89: 74 4c                       	je	76 <_mlx_int_parse_xpm+0x307>
100007b8b: 4c 8d 2d ce 10 02 00        	leaq	135374(%rip), %r13
100007b92: 66 2e 0f 1f 84 00 00 00 00 00       	nopw	%cs:(%rax,%rax)
100007b9c: 0f 1f 40 00                 	nopl	(%rax)
100007ba0: 48 89 de                    	movq	%rbx, %rsi
100007ba3: e8 52 2d 00 00              	callq	11602 <dyld_stub_binder+0x10000a8fa>
100007ba8: 85 c0                       	testl	%eax, %eax
100007baa: 74 1c                       	je	28 <_mlx_int_parse_xpm+0x2f8>
100007bac: 49 8b 7d 00                 	movq	(%r13), %rdi
100007bb0: 49 83 c5 10                 	addq	$16, %r13
100007bb4: 48 85 ff                    	testq	%rdi, %rdi
100007bb7: 75 e7                       	jne	-25 <_mlx_int_parse_xpm+0x2d0>
100007bb9: 4c 8b ad 58 ff ff ff        	movq	-168(%rbp), %r13
100007bc0: 48 8b 75 88                 	movq	-120(%rbp), %rsi
100007bc4: 31 c0                       	xorl	%eax, %eax
100007bc6: eb 0f                       	jmp	15 <_mlx_int_parse_xpm+0x307>
100007bc8: 41 8b 45 f8                 	movl	-8(%r13), %eax
100007bcc: 4c 8b ad 58 ff ff ff        	movq	-168(%rbp), %r13
100007bd3: 48 8b 75 88                 	movq	-120(%rbp), %rsi
100007bd7: 31 db                       	xorl	%ebx, %ebx
100007bd9: 83 bd 64 ff ff ff 03        	cmpl	$3, -156(%rbp)
100007be0: 48 8b bd 10 ff ff ff        	movq	-240(%rbp), %rdi
100007be7: 4c 8b 85 40 ff ff ff        	movq	-192(%rbp), %r8
100007bee: 72 44                       	jb	68 <_mlx_int_parse_xpm+0x364>
100007bf0: 31 db                       	xorl	%ebx, %ebx
100007bf2: 8b 8d 2c ff ff ff           	movl	-212(%rbp), %ecx
100007bf8: 0f 1f 84 00 00 00 00 00     	nopl	(%rax,%rax)
100007c00: c1 e3 08                    	shll	$8, %ebx
100007c03: 41 0f be 14 24              	movsbl	(%r12), %edx
100007c08: 01 da                       	addl	%ebx, %edx
100007c0a: c1 e2 08                    	shll	$8, %edx
100007c0d: 41 0f be 5c 24 01           	movsbl	1(%r12), %ebx
100007c13: 01 d3                       	addl	%edx, %ebx
100007c15: c1 e3 08                    	shll	$8, %ebx
100007c18: 41 0f be 54 24 02           	movsbl	2(%r12), %edx
100007c1e: 01 da                       	addl	%ebx, %edx
100007c20: c1 e2 08                    	shll	$8, %edx
100007c23: 41 0f be 5c 24 03           	movsbl	3(%r12), %ebx
100007c29: 49 83 c4 04                 	addq	$4, %r12
100007c2d: 01 d3                       	addl	%edx, %ebx
100007c2f: 83 c1 04                    	addl	$4, %ecx
100007c32: 75 cc                       	jne	-52 <_mlx_int_parse_xpm+0x330>
100007c34: 83 bd 68 ff ff ff 00        	cmpl	$0, -152(%rbp)
100007c3b: 74 14                       	je	20 <_mlx_int_parse_xpm+0x381>
100007c3d: 31 c9                       	xorl	%ecx, %ecx
100007c3f: 90                          	nop
100007c40: c1 e3 08                    	shll	$8, %ebx
100007c43: 41 0f be 14 0c              	movsbl	(%r12,%rcx), %edx
100007c48: 01 d3                       	addl	%edx, %ebx
100007c4a: 48 ff c1                    	incq	%rcx
100007c4d: 39 cf                       	cmpl	%ecx, %edi
100007c4f: 75 ef                       	jne	-17 <_mlx_int_parse_xpm+0x370>
100007c51: 80 bd 38 ff ff ff 00        	cmpb	$0, -200(%rbp)
100007c58: 0f 85 0f fe ff ff           	jne	-497 <_mlx_int_parse_xpm+0x19d>
100007c5e: 48 63 cb                    	movslq	%ebx, %rcx
100007c61: 48 8d 0c 8e                 	leaq	(%rsi,%rcx,4), %rcx
100007c65: 4c 8b a5 48 ff ff ff        	movq	-184(%rbp), %r12
100007c6c: 48 8b 9d 50 ff ff ff        	movq	-176(%rbp), %rbx
100007c73: e9 11 fe ff ff              	jmp	-495 <_mlx_int_parse_xpm+0x1b9>
100007c78: 48 8b 7d 80                 	movq	-128(%rbp), %rdi
100007c7c: 48 85 ff                    	testq	%rdi, %rdi
100007c7f: 74 05                       	je	5 <_mlx_int_parse_xpm+0x3b6>
100007c81: e8 36 2b 00 00              	callq	11062 <dyld_stub_binder+0x10000a7bc>
100007c86: 4c 89 ff                    	movq	%r15, %rdi
100007c89: e9 d5 01 00 00              	jmp	469 <_mlx_int_parse_xpm+0x593>
100007c8e: 4c 89 ef                    	movq	%r13, %rdi
100007c91: 8b 9d 74 ff ff ff           	movl	-140(%rbp), %ebx
100007c97: 89 de                       	movl	%ebx, %esi
100007c99: 8b 95 7c ff ff ff           	movl	-132(%rbp), %edx
100007c9f: 31 c0                       	xorl	%eax, %eax
100007ca1: e8 aa f4 ff ff              	callq	-2902 <_mlx_new_image>
100007ca6: 48 85 c0                    	testq	%rax, %rax
100007ca9: 0f 84 ab 01 00 00           	je	427 <_mlx_int_parse_xpm+0x58a>
100007caf: 49 89 c7                    	movq	%rax, %r15
100007cb2: 4c 8b 60 08                 	movq	8(%rax), %r12
100007cb6: 89 d8                       	movl	%ebx, %eax
100007cb8: 48 89 85 40 ff ff ff        	movq	%rax, -192(%rbp)
100007cbf: 45 89 f5                    	movl	%r14d, %r13d
100007cc2: 41 83 e5 fc                 	andl	$-4, %r13d
100007cc6: 41 83 e6 03                 	andl	$3, %r14d
100007cca: 48 8b 45 80                 	movq	-128(%rbp), %rax
100007cce: 48 8b 8d 18 ff ff ff        	movq	-232(%rbp), %rcx
100007cd5: 48 8d 44 c8 fc              	leaq	-4(%rax,%rcx,8), %rax
100007cda: 48 89 85 50 ff ff ff        	movq	%rax, -176(%rbp)
100007ce1: eb 17                       	jmp	23 <_mlx_int_parse_xpm+0x42a>
100007ce3: 49 63 07                    	movslq	(%r15), %rax
100007ce6: 4d 8d 24 84                 	leaq	(%r12,%rax,4), %r12
100007cea: 44 89 9d 7c ff ff ff        	movl	%r11d, -132(%rbp)
100007cf1: 45 85 db                    	testl	%r11d, %r11d
100007cf4: 0f 84 b3 01 00 00           	je	435 <_mlx_int_parse_xpm+0x5dd>
100007cfa: 48 8b bd 20 ff ff ff        	movq	-224(%rbp), %rdi
100007d01: 48 8d b5 78 ff ff ff        	leaq	-136(%rbp), %rsi
100007d08: 8b 95 70 ff ff ff           	movl	-144(%rbp), %edx
100007d0e: 31 c0                       	xorl	%eax, %eax
100007d10: ff 95 48 ff ff ff           	callq	*-184(%rbp)
100007d16: 48 85 c0                    	testq	%rax, %rax
100007d19: 0f 84 5b 01 00 00           	je	347 <_mlx_int_parse_xpm+0x5aa>
100007d1f: 44 8b 9d 7c ff ff ff        	movl	-132(%rbp), %r11d
100007d26: 41 ff cb                    	decl	%r11d
100007d29: 83 bd 74 ff ff ff 00        	cmpl	$0, -140(%rbp)
100007d30: 4c 8b 55 88                 	movq	-120(%rbp), %r10
100007d34: 7e ad                       	jle	-83 <_mlx_int_parse_xpm+0x413>
100007d36: 49 89 c0                    	movq	%rax, %r8
100007d39: 49 f7 d8                    	negq	%r8
100007d3c: 48 89 c2                    	movq	%rax, %rdx
100007d3f: 45 31 c9                    	xorl	%r9d, %r9d
100007d42: eb 49                       	jmp	73 <_mlx_int_parse_xpm+0x4bd>
100007d44: 66 2e 0f 1f 84 00 00 00 00 00       	nopw	%cs:(%rax,%rax)
100007d4e: 66 90                       	nop
100007d50: 48 63 cf                    	movslq	%edi, %rcx
100007d53: 49 8d 34 8a                 	leaq	(%r10,%rcx,4), %rsi
100007d57: 8b 0e                       	movl	(%rsi), %ecx
100007d59: 83 f9 ff                    	cmpl	$-1, %ecx
100007d5c: be 00 00 00 ff              	movl	$4278190080, %esi
100007d61: 0f 44 ce                    	cmovel	%esi, %ecx
100007d64: 42 8d 34 8d 00 00 00 00     	leal	(,%r9,4), %esi
100007d6c: 41 89 0c 34                 	movl	%ecx, (%r12,%rsi)
100007d70: 49 ff c1                    	incq	%r9
100007d73: 48 8b 8d 30 ff ff ff        	movq	-208(%rbp), %rcx
100007d7a: 49 29 c8                    	subq	%rcx, %r8
100007d7d: 48 01 ca                    	addq	%rcx, %rdx
100007d80: 4c 3b 8d 40 ff ff ff        	cmpq	-192(%rbp), %r9
100007d87: 0f 84 56 ff ff ff           	je	-170 <_mlx_int_parse_xpm+0x413>
100007d8d: 83 bd 64 ff ff ff 03        	cmpl	$3, -156(%rbp)
100007d94: 73 2a                       	jae	42 <_mlx_int_parse_xpm+0x4f0>
100007d96: 4c 89 ce                    	movq	%r9, %rsi
100007d99: 48 0f af b5 30 ff ff ff     	imulq	-208(%rbp), %rsi
100007da1: 48 01 c6                    	addq	%rax, %rsi
100007da4: 31 ff                       	xorl	%edi, %edi
100007da6: 83 bd 68 ff ff ff 00        	cmpl	$0, -152(%rbp)
100007dad: 75 5d                       	jne	93 <_mlx_int_parse_xpm+0x53c>
100007daf: eb 70                       	jmp	112 <_mlx_int_parse_xpm+0x551>
100007db1: 66 2e 0f 1f 84 00 00 00 00 00       	nopw	%cs:(%rax,%rax)
100007dbb: 0f 1f 44 00 00              	nopl	(%rax,%rax)
100007dc0: 31 f6                       	xorl	%esi, %esi
100007dc2: 31 ff                       	xorl	%edi, %edi
100007dc4: 66 2e 0f 1f 84 00 00 00 00 00       	nopw	%cs:(%rax,%rax)
100007dce: 66 90                       	nop
100007dd0: c1 e7 08                    	shll	$8, %edi
100007dd3: 0f be 0c 32                 	movsbl	(%rdx,%rsi), %ecx
100007dd7: 01 f9                       	addl	%edi, %ecx
100007dd9: c1 e1 08                    	shll	$8, %ecx
100007ddc: 0f be 7c 32 01              	movsbl	1(%rdx,%rsi), %edi
100007de1: 01 cf                       	addl	%ecx, %edi
100007de3: c1 e7 08                    	shll	$8, %edi
100007de6: 0f be 4c 32 02              	movsbl	2(%rdx,%rsi), %ecx
100007deb: 01 f9                       	addl	%edi, %ecx
100007ded: c1 e1 08                    	shll	$8, %ecx
100007df0: 0f be 7c 32 03              	movsbl	3(%rdx,%rsi), %edi
100007df5: 01 cf                       	addl	%ecx, %edi
100007df7: 48 83 c6 04                 	addq	$4, %rsi
100007dfb: 41 39 f5                    	cmpl	%esi, %r13d
100007dfe: 75 d0                       	jne	-48 <_mlx_int_parse_xpm+0x500>
100007e00: 4c 29 c6                    	subq	%r8, %rsi
100007e03: 83 bd 68 ff ff ff 00        	cmpl	$0, -152(%rbp)
100007e0a: 74 15                       	je	21 <_mlx_int_parse_xpm+0x551>
100007e0c: 31 c9                       	xorl	%ecx, %ecx
100007e0e: 66 90                       	nop
100007e10: c1 e7 08                    	shll	$8, %edi
100007e13: 0f be 1c 0e                 	movsbl	(%rsi,%rcx), %ebx
100007e17: 01 df                       	addl	%ebx, %edi
100007e19: 48 ff c1                    	incq	%rcx
100007e1c: 41 39 ce                    	cmpl	%ecx, %r14d
100007e1f: 75 ef                       	jne	-17 <_mlx_int_parse_xpm+0x540>
100007e21: 80 bd 38 ff ff ff 00        	cmpb	$0, -200(%rbp)
100007e28: 0f 84 22 ff ff ff           	je	-222 <_mlx_int_parse_xpm+0x480>
100007e2e: 48 8b b5 50 ff ff ff        	movq	-176(%rbp), %rsi
100007e35: 8b 8d 6c ff ff ff           	movl	-148(%rbp), %ecx
100007e3b: 0f 1f 44 00 00              	nopl	(%rax,%rax)
100007e40: 39 7e fc                    	cmpl	%edi, -4(%rsi)
100007e43: 0f 84 0e ff ff ff           	je	-242 <_mlx_int_parse_xpm+0x487>
100007e49: ff c9                       	decl	%ecx
100007e4b: 48 83 c6 f8                 	addq	$-8, %rsi
100007e4f: 85 c9                       	testl	%ecx, %ecx
100007e51: 75 ed                       	jne	-19 <_mlx_int_parse_xpm+0x570>
100007e53: 31 c9                       	xorl	%ecx, %ecx
100007e55: e9 ff fe ff ff              	jmp	-257 <_mlx_int_parse_xpm+0x489>
100007e5a: 48 8b 7d 80                 	movq	-128(%rbp), %rdi
100007e5e: 48 85 ff                    	testq	%rdi, %rdi
100007e61: 74 05                       	je	5 <_mlx_int_parse_xpm+0x598>
100007e63: e8 54 29 00 00              	callq	10580 <dyld_stub_binder+0x10000a7bc>
100007e68: 48 8b 7d 88                 	movq	-120(%rbp), %rdi
100007e6c: 48 85 ff                    	testq	%rdi, %rdi
100007e6f: 0f 85 55 fb ff ff           	jne	-1195 <_mlx_int_parse_xpm+0xfa>
100007e75: e9 55 fb ff ff              	jmp	-1195 <_mlx_int_parse_xpm+0xff>
100007e7a: 48 8b 7d 80                 	movq	-128(%rbp), %rdi
100007e7e: 48 85 ff                    	testq	%rdi, %rdi
100007e81: 74 05                       	je	5 <_mlx_int_parse_xpm+0x5b8>
100007e83: e8 34 29 00 00              	callq	10548 <dyld_stub_binder+0x10000a7bc>
100007e88: 48 8b 7d 88                 	movq	-120(%rbp), %rdi
100007e8c: 48 85 ff                    	testq	%rdi, %rdi
100007e8f: 48 8b 9d 58 ff ff ff        	movq	-168(%rbp), %rbx
100007e96: 74 05                       	je	5 <_mlx_int_parse_xpm+0x5cd>
100007e98: e8 1f 29 00 00              	callq	10527 <dyld_stub_binder+0x10000a7bc>
100007e9d: 48 89 df                    	movq	%rbx, %rdi
100007ea0: 4c 89 fe                    	movq	%r15, %rsi
100007ea3: e8 58 f6 ff ff              	callq	-2472 <_mlx_destroy_image>
100007ea8: e9 22 fb ff ff              	jmp	-1246 <_mlx_int_parse_xpm+0xff>
100007ead: 48 8b 7d 80                 	movq	-128(%rbp), %rdi
100007eb1: 48 85 ff                    	testq	%rdi, %rdi
100007eb4: 74 05                       	je	5 <_mlx_int_parse_xpm+0x5eb>
100007eb6: e8 01 29 00 00              	callq	10497 <dyld_stub_binder+0x10000a7bc>
100007ebb: 48 8b 7d 88                 	movq	-120(%rbp), %rdi
100007ebf: 48 85 ff                    	testq	%rdi, %rdi
100007ec2: 0f 84 0a fb ff ff           	je	-1270 <_mlx_int_parse_xpm+0x102>
100007ec8: e8 ef 28 00 00              	callq	10479 <dyld_stub_binder+0x10000a7bc>
100007ecd: e9 00 fb ff ff              	jmp	-1280 <_mlx_int_parse_xpm+0x102>
100007ed2: e8 c7 28 00 00              	callq	10439 <dyld_stub_binder+0x10000a79e>
100007ed7: 66 0f 1f 84 00 00 00 00 00  	nopw	(%rax,%rax)

0000000100007ee0 _mlx_int_file_get_rid_comment:
100007ee0: 55                          	pushq	%rbp
100007ee1: 48 89 e5                    	movq	%rsp, %rbp
100007ee4: 41 57                       	pushq	%r15
100007ee6: 41 56                       	pushq	%r14
100007ee8: 41 55                       	pushq	%r13
100007eea: 41 54                       	pushq	%r12
100007eec: 53                          	pushq	%rbx
100007eed: 50                          	pushq	%rax
100007eee: 41 89 f6                    	movl	%esi, %r14d
100007ef1: 49 89 fd                    	movq	%rdi, %r13
100007ef4: 48 8d 35 a2 4f 00 00        	leaq	20386(%rip), %rsi
100007efb: 44 89 f2                    	movl	%r14d, %edx
100007efe: e8 8d 02 00 00              	callq	653 <_mlx_int_str_str_cote>
100007f03: 83 f8 ff                    	cmpl	$-1, %eax
100007f06: 74 5b                       	je	91 <_mlx_int_file_get_rid_comment+0x83>
100007f08: 45 8d 7e fe                 	leal	-2(%r14), %r15d
100007f0c: 4c 8d 25 8a 4f 00 00        	leaq	20362(%rip), %r12
100007f13: 66 2e 0f 1f 84 00 00 00 00 00       	nopw	%cs:(%rax,%rax)
100007f1d: 0f 1f 00                    	nopl	(%rax)
100007f20: 48 98                       	cltq
100007f22: 49 8d 5c 05 00              	leaq	(%r13,%rax), %rbx
100007f27: 49 8d 7c 05 02              	leaq	2(%r13,%rax), %rdi
100007f2c: 44 89 fa                    	movl	%r15d, %edx
100007f2f: 29 c2                       	subl	%eax, %edx
100007f31: 48 8d 35 68 4f 00 00        	leaq	20328(%rip), %rsi
100007f38: e8 d3 01 00 00              	callq	467 <_mlx_int_str_str>
100007f3d: 83 c0 04                    	addl	$4, %eax
100007f40: 48 63 d0                    	movslq	%eax, %rdx
100007f43: 48 89 df                    	movq	%rbx, %rdi
100007f46: be 20 00 00 00              	movl	$32, %esi
100007f4b: e8 74 29 00 00              	callq	10612 <dyld_stub_binder+0x10000a8c4>
100007f50: 4c 89 ef                    	movq	%r13, %rdi
100007f53: 4c 89 e6                    	movq	%r12, %rsi
100007f56: 44 89 f2                    	movl	%r14d, %edx
100007f59: e8 32 02 00 00              	callq	562 <_mlx_int_str_str_cote>
100007f5e: 83 f8 ff                    	cmpl	$-1, %eax
100007f61: 75 bd                       	jne	-67 <_mlx_int_file_get_rid_comment+0x40>
100007f63: 48 8d 35 39 4f 00 00        	leaq	20281(%rip), %rsi
100007f6a: 4c 89 ef                    	movq	%r13, %rdi
100007f6d: 44 89 f2                    	movl	%r14d, %edx
100007f70: e8 1b 02 00 00              	callq	539 <_mlx_int_str_str_cote>
100007f75: 83 f8 ff                    	cmpl	$-1, %eax
100007f78: 74 59                       	je	89 <_mlx_int_file_get_rid_comment+0xf3>
100007f7a: 45 8d 7e fe                 	leal	-2(%r14), %r15d
100007f7e: 4c 8d 25 1e 4f 00 00        	leaq	20254(%rip), %r12
100007f85: 66 2e 0f 1f 84 00 00 00 00 00       	nopw	%cs:(%rax,%rax)
100007f8f: 90                          	nop
100007f90: 48 98                       	cltq
100007f92: 49 8d 5c 05 00              	leaq	(%r13,%rax), %rbx
100007f97: 49 8d 7c 05 02              	leaq	2(%r13,%rax), %rdi
100007f9c: 44 89 fa                    	movl	%r15d, %edx
100007f9f: 29 c2                       	subl	%eax, %edx
100007fa1: 48 8d 35 fe 4e 00 00        	leaq	20222(%rip), %rsi
100007fa8: e8 63 01 00 00              	callq	355 <_mlx_int_str_str>
100007fad: 83 c0 03                    	addl	$3, %eax
100007fb0: 48 63 d0                    	movslq	%eax, %rdx
100007fb3: 48 89 df                    	movq	%rbx, %rdi
100007fb6: be 20 00 00 00              	movl	$32, %esi
100007fbb: e8 04 29 00 00              	callq	10500 <dyld_stub_binder+0x10000a8c4>
100007fc0: 4c 89 ef                    	movq	%r13, %rdi
100007fc3: 4c 89 e6                    	movq	%r12, %rsi
100007fc6: 44 89 f2                    	movl	%r14d, %edx
100007fc9: e8 c2 01 00 00              	callq	450 <_mlx_int_str_str_cote>
100007fce: 83 f8 ff                    	cmpl	$-1, %eax
100007fd1: 75 bd                       	jne	-67 <_mlx_int_file_get_rid_comment+0xb0>
100007fd3: 48 83 c4 08                 	addq	$8, %rsp
100007fd7: 5b                          	popq	%rbx
100007fd8: 41 5c                       	popq	%r12
100007fda: 41 5d                       	popq	%r13
100007fdc: 41 5e                       	popq	%r14
100007fde: 41 5f                       	popq	%r15
100007fe0: 5d                          	popq	%rbp
100007fe1: c3                          	retq
100007fe2: 66 2e 0f 1f 84 00 00 00 00 00       	nopw	%cs:(%rax,%rax)
100007fec: 0f 1f 40 00                 	nopl	(%rax)

0000000100007ff0 _mlx_xpm_file_to_image:
100007ff0: 55                          	pushq	%rbp
100007ff1: 48 89 e5                    	movq	%rsp, %rbp
100007ff4: 41 57                       	pushq	%r15
100007ff6: 41 56                       	pushq	%r14
100007ff8: 41 55                       	pushq	%r13
100007ffa: 41 54                       	pushq	%r12
100007ffc: 53                          	pushq	%rbx
100007ffd: 48 83 ec 18                 	subq	$24, %rsp
100008001: 49 89 cf                    	movq	%rcx, %r15
100008004: 48 89 d3                    	movq	%rdx, %rbx
100008007: 49 89 fc                    	movq	%rdi, %r12
10000800a: 45 31 f6                    	xorl	%r14d, %r14d
10000800d: 48 89 f7                    	movq	%rsi, %rdi
100008010: 31 f6                       	xorl	%esi, %esi
100008012: 31 c0                       	xorl	%eax, %eax
100008014: e8 c9 28 00 00              	callq	10441 <dyld_stub_binder+0x10000a8e2>
100008019: 83 f8 ff                    	cmpl	$-1, %eax
10000801c: 0f 84 a8 00 00 00           	je	168 <_mlx_xpm_file_to_image+0xda>
100008022: 41 89 c5                    	movl	%eax, %r13d
100008025: 48 89 5d d0                 	movq	%rbx, -48(%rbp)
100008029: 4c 89 7d c8                 	movq	%r15, -56(%rbp)
10000802d: 89 c7                       	movl	%eax, %edi
10000802f: 31 f6                       	xorl	%esi, %esi
100008031: ba 02 00 00 00              	movl	$2, %edx
100008036: e8 7d 28 00 00              	callq	10365 <dyld_stub_binder+0x10000a8b8>
10000803b: 49 89 c6                    	movq	%rax, %r14
10000803e: 41 83 fe ff                 	cmpl	$-1, %r14d
100008042: 74 76                       	je	118 <_mlx_xpm_file_to_image+0xca>
100008044: 49 63 de                    	movslq	%r14d, %rbx
100008047: 31 ff                       	xorl	%edi, %edi
100008049: 48 89 de                    	movq	%rbx, %rsi
10000804c: ba 03 00 00 00              	movl	$3, %edx
100008051: b9 02 00 00 00              	movl	$2, %ecx
100008056: 45 89 e8                    	movl	%r13d, %r8d
100008059: 45 31 c9                    	xorl	%r9d, %r9d
10000805c: e8 69 28 00 00              	callq	10345 <dyld_stub_binder+0x10000a8ca>
100008061: 48 83 f8 ff                 	cmpq	$-1, %rax
100008065: 74 53                       	je	83 <_mlx_xpm_file_to_image+0xca>
100008067: 49 89 c7                    	movq	%rax, %r15
10000806a: 48 89 c7                    	movq	%rax, %rdi
10000806d: 44 89 f6                    	movl	%r14d, %esi
100008070: e8 6b fe ff ff              	callq	-405 <_mlx_int_file_get_rid_comment>
100008075: 48 8d 0d b4 f5 ff ff        	leaq	-2636(%rip), %rcx
10000807c: 4c 89 e7                    	movq	%r12, %rdi
10000807f: 4c 89 fe                    	movq	%r15, %rsi
100008082: 44 89 f2                    	movl	%r14d, %edx
100008085: e8 46 f8 ff ff              	callq	-1978 <_mlx_int_parse_xpm>
10000808a: 49 89 c6                    	movq	%rax, %r14
10000808d: 48 85 c0                    	testq	%rax, %rax
100008090: 74 13                       	je	19 <_mlx_xpm_file_to_image+0xb5>
100008092: 41 8b 06                    	movl	(%r14), %eax
100008095: 48 8b 4d d0                 	movq	-48(%rbp), %rcx
100008099: 89 01                       	movl	%eax, (%rcx)
10000809b: 41 8b 46 04                 	movl	4(%r14), %eax
10000809f: 48 8b 4d c8                 	movq	-56(%rbp), %rcx
1000080a3: 89 01                       	movl	%eax, (%rcx)
1000080a5: 4c 89 ff                    	movq	%r15, %rdi
1000080a8: 48 89 de                    	movq	%rbx, %rsi
1000080ab: e8 20 28 00 00              	callq	10272 <dyld_stub_binder+0x10000a8d0>
1000080b0: 44 89 ef                    	movl	%r13d, %edi
1000080b3: e8 f2 26 00 00              	callq	9970 <dyld_stub_binder+0x10000a7aa>
1000080b8: eb 10                       	jmp	16 <_mlx_xpm_file_to_image+0xda>
1000080ba: 45 85 ed                    	testl	%r13d, %r13d
1000080bd: 78 08                       	js	8 <_mlx_xpm_file_to_image+0xd7>
1000080bf: 44 89 ef                    	movl	%r13d, %edi
1000080c2: e8 e3 26 00 00              	callq	9955 <dyld_stub_binder+0x10000a7aa>
1000080c7: 45 31 f6                    	xorl	%r14d, %r14d
1000080ca: 4c 89 f0                    	movq	%r14, %rax
1000080cd: 48 83 c4 18                 	addq	$24, %rsp
1000080d1: 5b                          	popq	%rbx
1000080d2: 41 5c                       	popq	%r12
1000080d4: 41 5d                       	popq	%r13
1000080d6: 41 5e                       	popq	%r14
1000080d8: 41 5f                       	popq	%r15
1000080da: 5d                          	popq	%rbp
1000080db: c3                          	retq
1000080dc: 0f 1f 40 00                 	nopl	(%rax)

00000001000080e0 _mlx_xpm_to_image:
1000080e0: 55                          	pushq	%rbp
1000080e1: 48 89 e5                    	movq	%rsp, %rbp
1000080e4: 41 56                       	pushq	%r14
1000080e6: 53                          	pushq	%rbx
1000080e7: 49 89 ce                    	movq	%rcx, %r14
1000080ea: 48 89 d3                    	movq	%rdx, %rbx
1000080ed: 48 8d 0d dc f5 ff ff        	leaq	-2596(%rip), %rcx
1000080f4: 31 d2                       	xorl	%edx, %edx
1000080f6: e8 d5 f7 ff ff              	callq	-2091 <_mlx_int_parse_xpm>
1000080fb: 48 85 c0                    	testq	%rax, %rax
1000080fe: 74 0a                       	je	10 <_mlx_xpm_to_image+0x2a>
100008100: 8b 08                       	movl	(%rax), %ecx
100008102: 89 0b                       	movl	%ecx, (%rbx)
100008104: 8b 48 04                    	movl	4(%rax), %ecx
100008107: 41 89 0e                    	movl	%ecx, (%r14)
10000810a: 5b                          	popq	%rbx
10000810b: 41 5e                       	popq	%r14
10000810d: 5d                          	popq	%rbp
10000810e: c3                          	retq
10000810f: 90                          	nop

0000000100008110 _mlx_int_str_str:
100008110: 55                          	pushq	%rbp
100008111: 48 89 e5                    	movq	%rsp, %rbp
100008114: 41 57                       	pushq	%r15
100008116: 41 56                       	pushq	%r14
100008118: 53                          	pushq	%rbx
100008119: 50                          	pushq	%rax
10000811a: 41 89 d7                    	movl	%edx, %r15d
10000811d: 49 89 f6                    	movq	%rsi, %r14
100008120: 48 89 fb                    	movq	%rdi, %rbx
100008123: 48 89 f7                    	movq	%rsi, %rdi
100008126: e8 e7 27 00 00              	callq	10215 <dyld_stub_binder+0x10000a912>
10000812b: 48 89 c1                    	movq	%rax, %rcx
10000812e: b8 ff ff ff ff              	movl	$4294967295, %eax
100008133: 44 39 f9                    	cmpl	%r15d, %ecx
100008136: 7f 48                       	jg	72 <_mlx_int_str_str+0x70>
100008138: 48 63 f1                    	movslq	%ecx, %rsi
10000813b: 80 7c 33 ff 00              	cmpb	$0, -1(%rbx,%rsi)
100008140: 74 3e                       	je	62 <_mlx_int_str_str+0x70>
100008142: 45 8a 06                    	movb	(%r14), %r8b
100008145: 31 d2                       	xorl	%edx, %edx
100008147: 31 ff                       	xorl	%edi, %edi
100008149: 44 89 c1                    	movl	%r8d, %ecx
10000814c: 0f 1f 40 00                 	nopl	(%rax)
100008150: 3a 0c 3b                    	cmpb	(%rbx,%rdi), %cl
100008153: 75 1b                       	jne	27 <_mlx_int_str_str+0x60>
100008155: 41 0f b6 4c 3e 01           	movzbl	1(%r14,%rdi), %ecx
10000815b: 48 ff c7                    	incq	%rdi
10000815e: 84 c9                       	testb	%cl, %cl
100008160: 75 ee                       	jne	-18 <_mlx_int_str_str+0x40>
100008162: eb 1a                       	jmp	26 <_mlx_int_str_str+0x6e>
100008164: 66 2e 0f 1f 84 00 00 00 00 00       	nopw	%cs:(%rax,%rax)
10000816e: 66 90                       	nop
100008170: ff c2                       	incl	%edx
100008172: 80 3c 33 00                 	cmpb	$0, (%rbx,%rsi)
100008176: 48 8d 5b 01                 	leaq	1(%rbx), %rbx
10000817a: 75 cb                       	jne	-53 <_mlx_int_str_str+0x37>
10000817c: eb 02                       	jmp	2 <_mlx_int_str_str+0x70>
10000817e: 89 d0                       	movl	%edx, %eax
100008180: 48 83 c4 08                 	addq	$8, %rsp
100008184: 5b                          	popq	%rbx
100008185: 41 5e                       	popq	%r14
100008187: 41 5f                       	popq	%r15
100008189: 5d                          	popq	%rbp
10000818a: c3                          	retq
10000818b: 0f 1f 44 00 00              	nopl	(%rax,%rax)

0000000100008190 _mlx_int_str_str_cote:
100008190: 55                          	pushq	%rbp
100008191: 48 89 e5                    	movq	%rsp, %rbp
100008194: 41 57                       	pushq	%r15
100008196: 41 56                       	pushq	%r14
100008198: 53                          	pushq	%rbx
100008199: 50                          	pushq	%rax
10000819a: 41 89 d7                    	movl	%edx, %r15d
10000819d: 49 89 f6                    	movq	%rsi, %r14
1000081a0: 48 89 fb                    	movq	%rdi, %rbx
1000081a3: 48 89 f7                    	movq	%rsi, %rdi
1000081a6: e8 67 27 00 00              	callq	10087 <dyld_stub_binder+0x10000a912>
1000081ab: 48 89 c1                    	movq	%rax, %rcx
1000081ae: b8 ff ff ff ff              	movl	$4294967295, %eax
1000081b3: 44 39 f9                    	cmpl	%r15d, %ecx
1000081b6: 7f 5e                       	jg	94 <_mlx_int_str_str_cote+0x86>
1000081b8: 4c 63 c1                    	movslq	%ecx, %r8
1000081bb: 42 80 7c 03 ff 00           	cmpb	$0, -1(%rbx,%r8)
1000081c1: 74 53                       	je	83 <_mlx_int_str_str_cote+0x86>
1000081c3: 31 f6                       	xorl	%esi, %esi
1000081c5: 31 d2                       	xorl	%edx, %edx
1000081c7: eb 14                       	jmp	20 <_mlx_int_str_str_cote+0x4d>
1000081c9: 0f 1f 80 00 00 00 00        	nopl	(%rax)
1000081d0: ff c2                       	incl	%edx
1000081d2: 42 80 3c 03 00              	cmpb	$0, (%rbx,%r8)
1000081d7: 48 8d 5b 01                 	leaq	1(%rbx), %rbx
1000081db: 74 39                       	je	57 <_mlx_int_str_str_cote+0x86>
1000081dd: 89 f7                       	movl	%esi, %edi
1000081df: 8a 0b                       	movb	(%rbx), %cl
1000081e1: be 01 00 00 00              	movl	$1, %esi
1000081e6: 29 fe                       	subl	%edi, %esi
1000081e8: 80 f9 22                    	cmpb	$34, %cl
1000081eb: 0f 45 f7                    	cmovnel	%edi, %esi
1000081ee: 85 f6                       	testl	%esi, %esi
1000081f0: 75 de                       	jne	-34 <_mlx_int_str_str_cote+0x40>
1000081f2: 41 38 0e                    	cmpb	%cl, (%r14)
1000081f5: 75 d9                       	jne	-39 <_mlx_int_str_str_cote+0x40>
1000081f7: bf 01 00 00 00              	movl	$1, %edi
1000081fc: 0f 1f 40 00                 	nopl	(%rax)
100008200: 41 0f b6 0c 3e              	movzbl	(%r14,%rdi), %ecx
100008205: 84 c9                       	testb	%cl, %cl
100008207: 74 0b                       	je	11 <_mlx_int_str_str_cote+0x84>
100008209: 3a 0c 3b                    	cmpb	(%rbx,%rdi), %cl
10000820c: 48 8d 7f 01                 	leaq	1(%rdi), %rdi
100008210: 74 ee                       	je	-18 <_mlx_int_str_str_cote+0x70>
100008212: eb bc                       	jmp	-68 <_mlx_int_str_str_cote+0x40>
100008214: 89 d0                       	movl	%edx, %eax
100008216: 48 83 c4 08                 	addq	$8, %rsp
10000821a: 5b                          	popq	%rbx
10000821b: 41 5e                       	popq	%r14
10000821d: 41 5f                       	popq	%r15
10000821f: 5d                          	popq	%rbp
100008220: c3                          	retq
100008221: 66 2e 0f 1f 84 00 00 00 00 00       	nopw	%cs:(%rax,%rax)
10000822b: 0f 1f 44 00 00              	nopl	(%rax,%rax)

0000000100008230 _mlx_int_str_to_wordtab:
100008230: 55                          	pushq	%rbp
100008231: 48 89 e5                    	movq	%rsp, %rbp
100008234: 41 57                       	pushq	%r15
100008236: 41 56                       	pushq	%r14
100008238: 41 54                       	pushq	%r12
10000823a: 53                          	pushq	%rbx
10000823b: 48 89 fb                    	movq	%rdi, %rbx
10000823e: 49 bf 00 00 00 00 01 00 00 00       	movabsq	$4294967296, %r15
100008248: e8 c5 26 00 00              	callq	9925 <dyld_stub_binder+0x10000a912>
10000824d: 49 89 c6                    	movq	%rax, %r14
100008250: 49 bc 01 02 00 00 01 00 00 00       	movabsq	$4294967809, %r12
10000825a: 31 ff                       	xorl	%edi, %edi
10000825c: 45 85 f6                    	testl	%r14d, %r14d
10000825f: 7e 67                       	jle	103 <_mlx_int_str_to_wordtab+0x98>
100008261: 31 c9                       	xorl	%ecx, %ecx
100008263: 66 2e 0f 1f 84 00 00 00 00 00       	nopw	%cs:(%rax,%rax)
10000826d: 0f 1f 00                    	nopl	(%rax)
100008270: 48 63 d1                    	movslq	%ecx, %rdx
100008273: 48 8d 34 13                 	leaq	(%rbx,%rdx), %rsi
100008277: 48 c1 e2 20                 	shlq	$32, %rdx
10000827b: eb 0b                       	jmp	11 <_mlx_int_str_to_wordtab+0x58>
10000827d: 0f 1f 00                    	nopl	(%rax)
100008280: 4c 01 fa                    	addq	%r15, %rdx
100008283: 48 ff c6                    	incq	%rsi
100008286: ff c1                       	incl	%ecx
100008288: 0f b6 06                    	movzbl	(%rsi), %eax
10000828b: 3c 09                       	cmpb	$9, %al
10000828d: 74 f1                       	je	-15 <_mlx_int_str_to_wordtab+0x50>
10000828f: 3c 20                       	cmpb	$32, %al
100008291: 74 ed                       	je	-19 <_mlx_int_str_to_wordtab+0x50>
100008293: 84 c0                       	testb	%al, %al
100008295: 74 02                       	je	2 <_mlx_int_str_to_wordtab+0x69>
100008297: ff c7                       	incl	%edi
100008299: 48 c1 fa 20                 	sarq	$32, %rdx
10000829d: 48 89 d1                    	movq	%rdx, %rcx
1000082a0: eb 11                       	jmp	17 <_mlx_int_str_to_wordtab+0x83>
1000082a2: 66 2e 0f 1f 84 00 00 00 00 00       	nopw	%cs:(%rax,%rax)
1000082ac: 0f 1f 40 00                 	nopl	(%rax)
1000082b0: 48 ff c1                    	incq	%rcx
1000082b3: 0f b6 04 0b                 	movzbl	(%rbx,%rcx), %eax
1000082b7: 48 83 f8 20                 	cmpq	$32, %rax
1000082bb: 77 f3                       	ja	-13 <_mlx_int_str_to_wordtab+0x80>
1000082bd: 49 0f a3 c4                 	btq	%rax, %r12
1000082c1: 73 ed                       	jae	-19 <_mlx_int_str_to_wordtab+0x80>
1000082c3: 44 39 f1                    	cmpl	%r14d, %ecx
1000082c6: 7c a8                       	jl	-88 <_mlx_int_str_to_wordtab+0x40>
1000082c8: 48 63 c7                    	movslq	%edi, %rax
1000082cb: 48 8d 3c c5 08 00 00 00     	leaq	8(,%rax,8), %rdi
1000082d3: e8 e6 25 00 00              	callq	9702 <dyld_stub_binder+0x10000a8be>
1000082d8: 45 31 c0                    	xorl	%r8d, %r8d
1000082db: 48 85 c0                    	testq	%rax, %rax
1000082de: 74 75                       	je	117 <_mlx_int_str_to_wordtab+0x125>
1000082e0: 45 85 f6                    	testl	%r14d, %r14d
1000082e3: 7e 63                       	jle	99 <_mlx_int_str_to_wordtab+0x118>
1000082e5: 45 31 c0                    	xorl	%r8d, %r8d
1000082e8: 31 d2                       	xorl	%edx, %edx
1000082ea: 66 0f 1f 44 00 00           	nopw	(%rax,%rax)
1000082f0: 48 63 f2                    	movslq	%edx, %rsi
1000082f3: 48 8d 3c 33                 	leaq	(%rbx,%rsi), %rdi
1000082f7: 48 c1 e6 20                 	shlq	$32, %rsi
1000082fb: eb 0e                       	jmp	14 <_mlx_int_str_to_wordtab+0xdb>
1000082fd: 0f 1f 00                    	nopl	(%rax)
100008300: c6 07 00                    	movb	$0, (%rdi)
100008303: 4c 01 fe                    	addq	%r15, %rsi
100008306: 48 ff c7                    	incq	%rdi
100008309: ff c2                       	incl	%edx
10000830b: 0f b6 0f                    	movzbl	(%rdi), %ecx
10000830e: 80 f9 09                    	cmpb	$9, %cl
100008311: 74 ed                       	je	-19 <_mlx_int_str_to_wordtab+0xd0>
100008313: 80 f9 20                    	cmpb	$32, %cl
100008316: 74 e8                       	je	-24 <_mlx_int_str_to_wordtab+0xd0>
100008318: 84 c9                       	testb	%cl, %cl
10000831a: 74 0a                       	je	10 <_mlx_int_str_to_wordtab+0xf6>
10000831c: 4d 63 c0                    	movslq	%r8d, %r8
10000831f: 4a 89 3c c0                 	movq	%rdi, (%rax,%r8,8)
100008323: 41 ff c0                    	incl	%r8d
100008326: 48 c1 fe 20                 	sarq	$32, %rsi
10000832a: 48 89 f2                    	movq	%rsi, %rdx
10000832d: eb 04                       	jmp	4 <_mlx_int_str_to_wordtab+0x103>
10000832f: 90                          	nop
100008330: 48 ff c2                    	incq	%rdx
100008333: 0f b6 0c 13                 	movzbl	(%rbx,%rdx), %ecx
100008337: 48 83 f9 20                 	cmpq	$32, %rcx
10000833b: 77 f3                       	ja	-13 <_mlx_int_str_to_wordtab+0x100>
10000833d: 49 0f a3 cc                 	btq	%rcx, %r12
100008341: 73 ed                       	jae	-19 <_mlx_int_str_to_wordtab+0x100>
100008343: 44 39 f2                    	cmpl	%r14d, %edx
100008346: 7c a8                       	jl	-88 <_mlx_int_str_to_wordtab+0xc0>
100008348: 49 63 c8                    	movslq	%r8d, %rcx
10000834b: 48 c7 04 c8 00 00 00 00     	movq	$0, (%rax,%rcx,8)
100008353: eb 02                       	jmp	2 <_mlx_int_str_to_wordtab+0x127>
100008355: 31 c0                       	xorl	%eax, %eax
100008357: 5b                          	popq	%rbx
100008358: 41 5c                       	popq	%r12
10000835a: 41 5e                       	popq	%r14
10000835c: 41 5f                       	popq	%r15
10000835e: 5d                          	popq	%rbp
10000835f: c3                          	retq

0000000100008360 _main:
100008360: 55                          	pushq	%rbp
100008361: 48 89 e5                    	movq	%rsp, %rbp
100008364: 48 81 ec a0 00 00 00        	subq	$160, %rsp
10000836b: 89 7d fc                    	movl	%edi, -4(%rbp)
10000836e: 48 89 75 f0                 	movq	%rsi, -16(%rbp)
100008372: 48 8b 75 f0                 	movq	-16(%rbp), %rsi
100008376: 48 8d bd 78 ff ff ff        	leaq	-136(%rbp), %rdi
10000837d: e8 9e 00 00 00              	callq	158 <_ft_sizeanderror>
100008382: c7 45 fc 01 00 00 00        	movl	$1, -4(%rbp)
100008389: 48 8d 85 68 ff ff ff        	leaq	-152(%rbp), %rax
100008390: 48 89 45 e8                 	movq	%rax, -24(%rbp)
100008394: 8b 4d a0                    	movl	-96(%rbp), %ecx
100008397: 83 c1 01                    	addl	$1, %ecx
10000839a: 48 63 f9                    	movslq	%ecx, %rdi
10000839d: be 08 00 00 00              	movl	$8, %esi
1000083a2: e8 b9 11 00 00              	callq	4537 <_ft_calloc>
1000083a7: 48 8b 55 e8                 	movq	-24(%rbp), %rdx
1000083ab: 48 89 02                    	movq	%rax, (%rdx)
1000083ae: 48 8d bd 78 ff ff ff        	leaq	-136(%rbp), %rdi
1000083b5: e8 26 00 00 00              	callq	38 <_ft_check_mapar_malloc>
1000083ba: 48 8d bd 78 ff ff ff        	leaq	-136(%rbp), %rdi
1000083c1: e8 4a 02 00 00              	callq	586 <_ft_initgame>
1000083c6: 31 c0                       	xorl	%eax, %eax
1000083c8: 48 81 c4 a0 00 00 00        	addq	$160, %rsp
1000083cf: 5d                          	popq	%rbp
1000083d0: c3                          	retq
1000083d1: 66 2e 0f 1f 84 00 00 00 00 00       	nopw	%cs:(%rax,%rax)
1000083db: 0f 1f 44 00 00              	nopl	(%rax,%rax)

00000001000083e0 _ft_check_mapar_malloc:
1000083e0: 55                          	pushq	%rbp
1000083e1: 48 89 e5                    	movq	%rsp, %rbp
1000083e4: 48 83 ec 10                 	subq	$16, %rsp
1000083e8: 48 89 7d f8                 	movq	%rdi, -8(%rbp)
1000083ec: 48 8b 45 f8                 	movq	-8(%rbp), %rax
1000083f0: 48 8b 40 70                 	movq	112(%rax), %rax
1000083f4: 48 83 38 00                 	cmpq	$0, (%rax)
1000083f8: 0f 85 16 00 00 00           	jne	22 <_ft_check_mapar_malloc+0x34>
1000083fe: 48 8d 3d a3 4a 00 00        	leaq	19107(%rip), %rdi
100008405: e8 de 24 00 00              	callq	9438 <dyld_stub_binder+0x10000a8e8>
10000840a: bf 01 00 00 00              	movl	$1, %edi
10000840f: e8 9c 23 00 00              	callq	9116 <dyld_stub_binder+0x10000a7b0>
100008414: 48 83 c4 10                 	addq	$16, %rsp
100008418: 5d                          	popq	%rbp
100008419: c3                          	retq
10000841a: 90                          	nop
10000841b: 90                          	nop
10000841c: 90                          	nop
10000841d: 90                          	nop
10000841e: 90                          	nop
10000841f: 90                          	nop

0000000100008420 _ft_sizeanderror:
100008420: 55                          	pushq	%rbp
100008421: 48 89 e5                    	movq	%rsp, %rbp
100008424: 48 83 ec 20                 	subq	$32, %rsp
100008428: 31 c0                       	xorl	%eax, %eax
10000842a: 48 89 7d f8                 	movq	%rdi, -8(%rbp)
10000842e: 48 89 75 f0                 	movq	%rsi, -16(%rbp)
100008432: 48 8b 4d f0                 	movq	-16(%rbp), %rcx
100008436: 48 8b 79 08                 	movq	8(%rcx), %rdi
10000843a: 89 c6                       	movl	%eax, %esi
10000843c: b0 00                       	movb	$0, %al
10000843e: e8 9f 24 00 00              	callq	9375 <dyld_stub_binder+0x10000a8e2>
100008443: 89 45 ec                    	movl	%eax, -20(%rbp)
100008446: 83 7d ec 00                 	cmpl	$0, -20(%rbp)
10000844a: 0f 8d 16 00 00 00           	jge	22 <_ft_sizeanderror+0x46>
100008450: 48 8d 3d 67 4a 00 00        	leaq	19047(%rip), %rdi
100008457: e8 8c 24 00 00              	callq	9356 <dyld_stub_binder+0x10000a8e8>
10000845c: bf 01 00 00 00              	movl	$1, %edi
100008461: e8 4a 23 00 00              	callq	9034 <dyld_stub_binder+0x10000a7b0>
100008466: 48 8b 45 f0                 	movq	-16(%rbp), %rax
10000846a: 48 8b 78 08                 	movq	8(%rax), %rdi
10000846e: 48 8b 45 f0                 	movq	-16(%rbp), %rax
100008472: 48 8b 40 08                 	movq	8(%rax), %rax
100008476: 48 89 7d e0                 	movq	%rdi, -32(%rbp)
10000847a: 48 89 c7                    	movq	%rax, %rdi
10000847d: e8 8e 0f 00 00              	callq	3982 <_ft_strlen>
100008482: 48 8b 7d e0                 	movq	-32(%rbp), %rdi
100008486: 48 8d 35 45 4a 00 00        	leaq	19013(%rip), %rsi
10000848d: 48 89 c2                    	movq	%rax, %rdx
100008490: e8 5b 11 00 00              	callq	4443 <_ft_strnstr>
100008495: 48 83 f8 00                 	cmpq	$0, %rax
100008499: 0f 85 16 00 00 00           	jne	22 <_ft_sizeanderror+0x95>
10000849f: 48 8d 3d 31 4a 00 00        	leaq	18993(%rip), %rdi
1000084a6: e8 3d 24 00 00              	callq	9277 <dyld_stub_binder+0x10000a8e8>
1000084ab: bf 01 00 00 00              	movl	$1, %edi
1000084b0: e8 fb 22 00 00              	callq	8955 <dyld_stub_binder+0x10000a7b0>
1000084b5: 8b 7d ec                    	movl	-20(%rbp), %edi
1000084b8: e8 23 00 00 00              	callq	35 <_ft_lenline>
1000084bd: 48 8b 4d f8                 	movq	-8(%rbp), %rcx
1000084c1: 89 41 24                    	movl	%eax, 36(%rcx)
1000084c4: 8b 7d ec                    	movl	-20(%rbp), %edi
1000084c7: 48 8b 4d f8                 	movq	-8(%rbp), %rcx
1000084cb: 8b 71 24                    	movl	36(%rcx), %esi
1000084ce: e8 7d 00 00 00              	callq	125 <_ft_numline>
1000084d3: 48 8b 4d f8                 	movq	-8(%rbp), %rcx
1000084d7: 89 41 28                    	movl	%eax, 40(%rcx)
1000084da: 48 83 c4 20                 	addq	$32, %rsp
1000084de: 5d                          	popq	%rbp
1000084df: c3                          	retq

00000001000084e0 _ft_lenline:
1000084e0: 55                          	pushq	%rbp
1000084e1: 48 89 e5                    	movq	%rsp, %rbp
1000084e4: 48 83 ec 10                 	subq	$16, %rsp
1000084e8: 48 8d 75 fb                 	leaq	-5(%rbp), %rsi
1000084ec: 89 7d fc                    	movl	%edi, -4(%rbp)
1000084ef: c7 45 f0 00 00 00 00        	movl	$0, -16(%rbp)
1000084f6: 8b 7d fc                    	movl	-4(%rbp), %edi
1000084f9: ba 01 00 00 00              	movl	$1, %edx
1000084fe: e8 eb 23 00 00              	callq	9195 <dyld_stub_binder+0x10000a8ee>
100008503: 89 45 f4                    	movl	%eax, -12(%rbp)
100008506: 83 7d f4 01                 	cmpl	$1, -12(%rbp)
10000850a: 0f 85 34 00 00 00           	jne	52 <_ft_lenline+0x64>
100008510: 0f be 45 fb                 	movsbl	-5(%rbp), %eax
100008514: 83 f8 0a                    	cmpl	$10, %eax
100008517: 0f 85 05 00 00 00           	jne	5 <_ft_lenline+0x42>
10000851d: e9 22 00 00 00              	jmp	34 <_ft_lenline+0x64>
100008522: 48 8d 75 fb                 	leaq	-5(%rbp), %rsi
100008526: 8b 45 f0                    	movl	-16(%rbp), %eax
100008529: 83 c0 01                    	addl	$1, %eax
10000852c: 89 45 f0                    	movl	%eax, -16(%rbp)
10000852f: 8b 7d fc                    	movl	-4(%rbp), %edi
100008532: ba 01 00 00 00              	movl	$1, %edx
100008537: e8 b2 23 00 00              	callq	9138 <dyld_stub_binder+0x10000a8ee>
10000853c: 89 45 f4                    	movl	%eax, -12(%rbp)
10000853f: e9 c2 ff ff ff              	jmp	-62 <_ft_lenline+0x26>
100008544: 8b 45 f0                    	movl	-16(%rbp), %eax
100008547: 48 83 c4 10                 	addq	$16, %rsp
10000854b: 5d                          	popq	%rbp
10000854c: c3                          	retq
10000854d: 90                          	nop
10000854e: 90                          	nop
10000854f: 90                          	nop

0000000100008550 _ft_numline:
100008550: 55                          	pushq	%rbp
100008551: 48 89 e5                    	movq	%rsp, %rbp
100008554: 48 83 ec 20                 	subq	$32, %rsp
100008558: 89 7d fc                    	movl	%edi, -4(%rbp)
10000855b: 89 75 f8                    	movl	%esi, -8(%rbp)
10000855e: c7 45 f4 01 00 00 00        	movl	$1, -12(%rbp)
100008565: 8b 7d fc                    	movl	-4(%rbp), %edi
100008568: e8 f3 14 00 00              	callq	5363 <_get_next_line>
10000856d: 48 89 45 e8                 	movq	%rax, -24(%rbp)
100008571: 48 83 7d e8 00              	cmpq	$0, -24(%rbp)
100008576: 0f 84 77 00 00 00           	je	119 <_ft_numline+0xa3>
10000857c: 48 8b 7d e8                 	movq	-24(%rbp), %rdi
100008580: e8 8b 0e 00 00              	callq	3723 <_ft_strlen>
100008585: 3b 45 f8                    	cmpl	-8(%rbp), %eax
100008588: 0f 8c 23 00 00 00           	jl	35 <_ft_numline+0x61>
10000858e: 48 8b 7d e8                 	movq	-24(%rbp), %rdi
100008592: e8 79 0e 00 00              	callq	3705 <_ft_strlen>
100008597: 48 83 f8 01                 	cmpq	$1, %rax
10000859b: 0f 85 2f 00 00 00           	jne	47 <_ft_numline+0x80>
1000085a1: 48 8b 45 e8                 	movq	-24(%rbp), %rax
1000085a5: 0f be 08                    	movsbl	(%rax), %ecx
1000085a8: 83 f9 0a                    	cmpl	$10, %ecx
1000085ab: 0f 84 1f 00 00 00           	je	31 <_ft_numline+0x80>
1000085b1: 48 8b 7d e8                 	movq	-24(%rbp), %rdi
1000085b5: e8 02 22 00 00              	callq	8706 <dyld_stub_binder+0x10000a7bc>
1000085ba: 48 8d 3d 32 49 00 00        	leaq	18738(%rip), %rdi
1000085c1: e8 22 23 00 00              	callq	8994 <dyld_stub_binder+0x10000a8e8>
1000085c6: bf 01 00 00 00              	movl	$1, %edi
1000085cb: e8 e0 21 00 00              	callq	8672 <dyld_stub_binder+0x10000a7b0>
1000085d0: 48 8b 7d e8                 	movq	-24(%rbp), %rdi
1000085d4: e8 e3 21 00 00              	callq	8675 <dyld_stub_binder+0x10000a7bc>
1000085d9: 8b 45 f4                    	movl	-12(%rbp), %eax
1000085dc: 83 c0 01                    	addl	$1, %eax
1000085df: 89 45 f4                    	movl	%eax, -12(%rbp)
1000085e2: 8b 7d fc                    	movl	-4(%rbp), %edi
1000085e5: e8 76 14 00 00              	callq	5238 <_get_next_line>
1000085ea: 48 89 45 e8                 	movq	%rax, -24(%rbp)
1000085ee: e9 7e ff ff ff              	jmp	-130 <_ft_numline+0x21>
1000085f3: 48 8b 7d e8                 	movq	-24(%rbp), %rdi
1000085f7: e8 c0 21 00 00              	callq	8640 <dyld_stub_binder+0x10000a7bc>
1000085fc: 8b 45 f4                    	movl	-12(%rbp), %eax
1000085ff: 48 83 c4 20                 	addq	$32, %rsp
100008603: 5d                          	popq	%rbp
100008604: c3                          	retq
100008605: 90                          	nop
100008606: 90                          	nop
100008607: 90                          	nop
100008608: 90                          	nop
100008609: 90                          	nop
10000860a: 90                          	nop
10000860b: 90                          	nop
10000860c: 90                          	nop
10000860d: 90                          	nop
10000860e: 90                          	nop
10000860f: 90                          	nop

0000000100008610 _ft_initgame:
100008610: 55                          	pushq	%rbp
100008611: 48 89 e5                    	movq	%rsp, %rbp
100008614: 48 83 ec 10                 	subq	$16, %rsp
100008618: 48 89 7d f8                 	movq	%rdi, -8(%rbp)
10000861c: 48 8b 7d f8                 	movq	-8(%rbp), %rdi
100008620: e8 2b 00 00 00              	callq	43 <_ft_setimg>
100008625: 48 8b 45 f8                 	movq	-8(%rbp), %rax
100008629: c7 40 14 00 00 00 00        	movl	$0, 20(%rax)
100008630: 48 8b 45 f8                 	movq	-8(%rbp), %rax
100008634: c7 40 18 00 00 00 00        	movl	$0, 24(%rax)
10000863b: 48 83 c4 10                 	addq	$16, %rsp
10000863f: 5d                          	popq	%rbp
100008640: c3                          	retq
100008641: 66 2e 0f 1f 84 00 00 00 00 00       	nopw	%cs:(%rax,%rax)
10000864b: 0f 1f 44 00 00              	nopl	(%rax,%rax)

0000000100008650 _ft_setimg:
100008650: 55                          	pushq	%rbp
100008651: 48 89 e5                    	movq	%rsp, %rbp
100008654: 48 83 ec 10                 	subq	$16, %rsp
100008658: 48 89 7d f8                 	movq	%rdi, -8(%rbp)
10000865c: 48 8b 7d f8                 	movq	-8(%rbp), %rdi
100008660: e8 0b 00 00 00              	callq	11 <_ft_setimg2>
100008665: 48 83 c4 10                 	addq	$16, %rsp
100008669: 5d                          	popq	%rbp
10000866a: c3                          	retq
10000866b: 0f 1f 44 00 00              	nopl	(%rax,%rax)

0000000100008670 _ft_setimg2:
100008670: 55                          	pushq	%rbp
100008671: 48 89 e5                    	movq	%rsp, %rbp
100008674: 48 83 ec 10                 	subq	$16, %rsp
100008678: 31 c0                       	xorl	%eax, %eax
10000867a: 89 c1                       	movl	%eax, %ecx
10000867c: 48 89 7d f8                 	movq	%rdi, -8(%rbp)
100008680: 48 8b 55 f8                 	movq	-8(%rbp), %rdx
100008684: 48 8b 3a                    	movq	(%rdx), %rdi
100008687: 48 8d 35 75 48 00 00        	leaq	18549(%rip), %rsi
10000868e: 48 89 ca                    	movq	%rcx, %rdx
100008691: e8 5a f9 ff ff              	callq	-1702 <_mlx_xpm_file_to_image>
100008696: 45 31 c0                    	xorl	%r8d, %r8d
100008699: 44 89 c1                    	movl	%r8d, %ecx
10000869c: 48 8b 55 f8                 	movq	-8(%rbp), %rdx
1000086a0: 48 89 42 50                 	movq	%rax, 80(%rdx)
1000086a4: 48 8d 05 73 48 00 00        	leaq	18547(%rip), %rax
1000086ab: 48 89 45 f0                 	movq	%rax, -16(%rbp)
1000086af: 48 8b 45 f8                 	movq	-8(%rbp), %rax
1000086b3: 48 8b 38                    	movq	(%rax), %rdi
1000086b6: 48 8b 75 f0                 	movq	-16(%rbp), %rsi
1000086ba: 48 89 ca                    	movq	%rcx, %rdx
1000086bd: e8 2e f9 ff ff              	callq	-1746 <_mlx_xpm_file_to_image>
1000086c2: 45 31 c0                    	xorl	%r8d, %r8d
1000086c5: 44 89 c1                    	movl	%r8d, %ecx
1000086c8: 48 8b 55 f8                 	movq	-8(%rbp), %rdx
1000086cc: 48 89 42 58                 	movq	%rax, 88(%rdx)
1000086d0: 48 8d 05 59 48 00 00        	leaq	18521(%rip), %rax
1000086d7: 48 89 45 f0                 	movq	%rax, -16(%rbp)
1000086db: 48 8b 45 f8                 	movq	-8(%rbp), %rax
1000086df: 48 8b 38                    	movq	(%rax), %rdi
1000086e2: 48 8b 75 f0                 	movq	-16(%rbp), %rsi
1000086e6: 48 89 ca                    	movq	%rcx, %rdx
1000086e9: e8 02 f9 ff ff              	callq	-1790 <_mlx_xpm_file_to_image>
1000086ee: 45 31 c0                    	xorl	%r8d, %r8d
1000086f1: 44 89 c1                    	movl	%r8d, %ecx
1000086f4: 48 8b 55 f8                 	movq	-8(%rbp), %rdx
1000086f8: 48 89 42 60                 	movq	%rax, 96(%rdx)
1000086fc: 48 8d 05 3f 48 00 00        	leaq	18495(%rip), %rax
100008703: 48 89 45 f0                 	movq	%rax, -16(%rbp)
100008707: 48 8b 45 f8                 	movq	-8(%rbp), %rax
10000870b: 48 8b 38                    	movq	(%rax), %rdi
10000870e: 48 8b 75 f0                 	movq	-16(%rbp), %rsi
100008712: 48 89 ca                    	movq	%rcx, %rdx
100008715: e8 d6 f8 ff ff              	callq	-1834 <_mlx_xpm_file_to_image>
10000871a: 48 8b 4d f8                 	movq	-8(%rbp), %rcx
10000871e: 48 89 41 68                 	movq	%rax, 104(%rcx)
100008722: 48 83 c4 10                 	addq	$16, %rsp
100008726: 5d                          	popq	%rbp
100008727: c3                          	retq
100008728: 90                          	nop
100008729: 90                          	nop
10000872a: 90                          	nop
10000872b: 90                          	nop
10000872c: 90                          	nop
10000872d: 90                          	nop
10000872e: 90                          	nop
10000872f: 90                          	nop

0000000100008730 _ft_getmap:
100008730: 55                          	pushq	%rbp
100008731: 48 89 e5                    	movq	%rsp, %rbp
100008734: 48 83 ec 30                 	subq	$48, %rsp
100008738: 48 89 7d f8                 	movq	%rdi, -8(%rbp)
10000873c: 89 75 f4                    	movl	%esi, -12(%rbp)
10000873f: 48 89 55 e8                 	movq	%rdx, -24(%rbp)
100008743: 83 7d f4 02                 	cmpl	$2, -12(%rbp)
100008747: 0f 84 05 00 00 00           	je	5 <_ft_getmap+0x22>
10000874d: e8 0e 0c 00 00              	callq	3086 <_ft_error>
100008752: 31 f6                       	xorl	%esi, %esi
100008754: c7 45 e4 00 00 00 00        	movl	$0, -28(%rbp)
10000875b: c6 45 db 00                 	movb	$0, -37(%rbp)
10000875f: 48 8b 45 e8                 	movq	-24(%rbp), %rax
100008763: 48 8b 78 08                 	movq	8(%rax), %rdi
100008767: b0 00                       	movb	$0, %al
100008769: e8 74 21 00 00              	callq	8564 <dyld_stub_binder+0x10000a8e2>
10000876e: 48 8d 75 da                 	leaq	-38(%rbp), %rsi
100008772: 89 45 e0                    	movl	%eax, -32(%rbp)
100008775: 8b 7d e0                    	movl	-32(%rbp), %edi
100008778: ba 01 00 00 00              	movl	$1, %edx
10000877d: e8 6c 21 00 00              	callq	8556 <dyld_stub_binder+0x10000a8ee>
100008782: 89 45 dc                    	movl	%eax, -36(%rbp)
100008785: bf 01 00 00 00              	movl	$1, %edi
10000878a: be 08 00 00 00              	movl	$8, %esi
10000878f: e8 cc 0d 00 00              	callq	3532 <_ft_calloc>
100008794: 48 8b 4d f8                 	movq	-8(%rbp), %rcx
100008798: 48 8b 49 70                 	movq	112(%rcx), %rcx
10000879c: 48 8b 09                    	movq	(%rcx), %rcx
10000879f: 48 63 55 e4                 	movslq	-28(%rbp), %rdx
1000087a3: 48 89 04 d1                 	movq	%rax, (%rcx,%rdx,8)
1000087a7: 83 7d dc 01                 	cmpl	$1, -36(%rbp)
1000087ab: 0f 85 92 00 00 00           	jne	146 <_ft_getmap+0x113>
1000087b1: 0f be 45 da                 	movsbl	-38(%rbp), %eax
1000087b5: 83 f8 0a                    	cmpl	$10, %eax
1000087b8: 0f 84 41 00 00 00           	je	65 <_ft_getmap+0xcf>
1000087be: 0f be 45 da                 	movsbl	-38(%rbp), %eax
1000087c2: 83 f8 00                    	cmpl	$0, %eax
1000087c5: 0f 84 34 00 00 00           	je	52 <_ft_getmap+0xcf>
1000087cb: 48 8d 75 da                 	leaq	-38(%rbp), %rsi
1000087cf: 48 8b 45 f8                 	movq	-8(%rbp), %rax
1000087d3: 48 8b 40 70                 	movq	112(%rax), %rax
1000087d7: 48 8b 00                    	movq	(%rax), %rax
1000087da: 48 63 4d e4                 	movslq	-28(%rbp), %rcx
1000087de: 48 8b 3c c8                 	movq	(%rax,%rcx,8), %rdi
1000087e2: e8 29 0f 00 00              	callq	3881 <_ft_strjoin>
1000087e7: 48 8b 4d f8                 	movq	-8(%rbp), %rcx
1000087eb: 48 8b 49 70                 	movq	112(%rcx), %rcx
1000087ef: 48 8b 09                    	movq	(%rcx), %rcx
1000087f2: 48 63 55 e4                 	movslq	-28(%rbp), %rdx
1000087f6: 48 89 04 d1                 	movq	%rax, (%rcx,%rdx,8)
1000087fa: e9 2b 00 00 00              	jmp	43 <_ft_getmap+0xfa>
1000087ff: 8b 45 e4                    	movl	-28(%rbp), %eax
100008802: 83 c0 01                    	addl	$1, %eax
100008805: 89 45 e4                    	movl	%eax, -28(%rbp)
100008808: bf 01 00 00 00              	movl	$1, %edi
10000880d: be 08 00 00 00              	movl	$8, %esi
100008812: e8 49 0d 00 00              	callq	3401 <_ft_calloc>
100008817: 48 8b 4d f8                 	movq	-8(%rbp), %rcx
10000881b: 48 8b 49 70                 	movq	112(%rcx), %rcx
10000881f: 48 8b 09                    	movq	(%rcx), %rcx
100008822: 48 63 55 e4                 	movslq	-28(%rbp), %rdx
100008826: 48 89 04 d1                 	movq	%rax, (%rcx,%rdx,8)
10000882a: 48 8d 75 da                 	leaq	-38(%rbp), %rsi
10000882e: 8b 7d e0                    	movl	-32(%rbp), %edi
100008831: ba 01 00 00 00              	movl	$1, %edx
100008836: e8 b3 20 00 00              	callq	8371 <dyld_stub_binder+0x10000a8ee>
10000883b: 89 45 dc                    	movl	%eax, -36(%rbp)
10000883e: e9 64 ff ff ff              	jmp	-156 <_ft_getmap+0x77>
100008843: 48 8b 7d f8                 	movq	-8(%rbp), %rdi
100008847: e8 14 00 00 00              	callq	20 <_ft_check_map>
10000884c: 48 8b 7d f8                 	movq	-8(%rbp), %rdi
100008850: e8 0b 01 00 00              	callq	267 <_ft_check_content>
100008855: 48 83 c4 30                 	addq	$48, %rsp
100008859: 5d                          	popq	%rbp
10000885a: c3                          	retq
10000885b: 0f 1f 44 00 00              	nopl	(%rax,%rax)

0000000100008860 _ft_check_map:
100008860: 55                          	pushq	%rbp
100008861: 48 89 e5                    	movq	%rsp, %rbp
100008864: 48 83 ec 20                 	subq	$32, %rsp
100008868: 48 89 7d f8                 	movq	%rdi, -8(%rbp)
10000886c: 48 8b 45 f8                 	movq	-8(%rbp), %rax
100008870: 48 8b 40 70                 	movq	112(%rax), %rax
100008874: c7 40 08 00 00 00 00        	movl	$0, 8(%rax)
10000887b: 48 8b 45 f8                 	movq	-8(%rbp), %rax
10000887f: c7 40 10 00 00 00 00        	movl	$0, 16(%rax)
100008886: 48 8b 45 f8                 	movq	-8(%rbp), %rax
10000888a: 48 8b 40 70                 	movq	112(%rax), %rax
10000888e: c7 40 0c 00 00 00 00        	movl	$0, 12(%rax)
100008895: c7 45 f0 00 00 00 00        	movl	$0, -16(%rbp)
10000889c: 8b 45 f0                    	movl	-16(%rbp), %eax
10000889f: 48 8b 4d f8                 	movq	-8(%rbp), %rcx
1000088a3: 3b 41 28                    	cmpl	40(%rcx), %eax
1000088a6: 0f 8d a8 00 00 00           	jge	168 <_ft_check_map+0xf4>
1000088ac: 48 8b 45 f8                 	movq	-8(%rbp), %rax
1000088b0: 48 8b 40 70                 	movq	112(%rax), %rax
1000088b4: 48 8b 00                    	movq	(%rax), %rax
1000088b7: 48 63 4d f0                 	movslq	-16(%rbp), %rcx
1000088bb: 48 8b 3c c8                 	movq	(%rax,%rcx,8), %rdi
1000088bf: e8 4c 0b 00 00              	callq	2892 <_ft_strlen>
1000088c4: 48 8b 4d f8                 	movq	-8(%rbp), %rcx
1000088c8: 48 63 49 24                 	movslq	36(%rcx), %rcx
1000088cc: 48 39 c8                    	cmpq	%rcx, %rax
1000088cf: 0f 84 16 00 00 00           	je	22 <_ft_check_map+0x8b>
1000088d5: 48 8d 3d 78 46 00 00        	leaq	18040(%rip), %rdi
1000088dc: e8 07 20 00 00              	callq	8199 <dyld_stub_binder+0x10000a8e8>
1000088e1: bf 01 00 00 00              	movl	$1, %edi
1000088e6: e8 c5 1e 00 00              	callq	7877 <dyld_stub_binder+0x10000a7b0>
1000088eb: c7 45 f4 00 00 00 00        	movl	$0, -12(%rbp)
1000088f2: 8b 45 f4                    	movl	-12(%rbp), %eax
1000088f5: 48 8b 4d f8                 	movq	-8(%rbp), %rcx
1000088f9: 3b 41 24                    	cmpl	36(%rcx), %eax
1000088fc: 0f 8d 44 00 00 00           	jge	68 <_ft_check_map+0xe6>
100008902: 48 8b 45 f8                 	movq	-8(%rbp), %rax
100008906: 48 8b 40 70                 	movq	112(%rax), %rax
10000890a: 48 8b 00                    	movq	(%rax), %rax
10000890d: 48 63 4d f0                 	movslq	-16(%rbp), %rcx
100008911: 48 8b 04 c8                 	movq	(%rax,%rcx,8), %rax
100008915: 48 63 4d f4                 	movslq	-12(%rbp), %rcx
100008919: 8a 14 08                    	movb	(%rax,%rcx), %dl
10000891c: 8b 75 f4                    	movl	-12(%rbp), %esi
10000891f: 8b 7d f0                    	movl	-16(%rbp), %edi
100008922: 48 8b 4d f8                 	movq	-8(%rbp), %rcx
100008926: 44 0f be c2                 	movsbl	%dl, %r8d
10000892a: 89 7d ec                    	movl	%edi, -20(%rbp)
10000892d: 44 89 c7                    	movl	%r8d, %edi
100008930: 8b 55 ec                    	movl	-20(%rbp), %edx
100008933: e8 b8 00 00 00              	callq	184 <_ft_check_tile>
100008938: 8b 55 f4                    	movl	-12(%rbp), %edx
10000893b: 83 c2 01                    	addl	$1, %edx
10000893e: 89 55 f4                    	movl	%edx, -12(%rbp)
100008941: e9 ac ff ff ff              	jmp	-84 <_ft_check_map+0x92>
100008946: 8b 45 f0                    	movl	-16(%rbp), %eax
100008949: 83 c0 01                    	addl	$1, %eax
10000894c: 89 45 f0                    	movl	%eax, -16(%rbp)
10000894f: e9 48 ff ff ff              	jmp	-184 <_ft_check_map+0x3c>
100008954: 48 83 c4 20                 	addq	$32, %rsp
100008958: 5d                          	popq	%rbp
100008959: c3                          	retq
10000895a: 66 0f 1f 44 00 00           	nopw	(%rax,%rax)

0000000100008960 _ft_check_content:
100008960: 55                          	pushq	%rbp
100008961: 48 89 e5                    	movq	%rsp, %rbp
100008964: 48 83 ec 10                 	subq	$16, %rsp
100008968: 48 89 7d f8                 	movq	%rdi, -8(%rbp)
10000896c: 48 8b 45 f8                 	movq	-8(%rbp), %rax
100008970: 83 78 10 01                 	cmpl	$1, 16(%rax)
100008974: 0f 84 11 00 00 00           	je	17 <_ft_check_content+0x2b>
10000897a: 48 8d 3d 49 46 00 00        	leaq	17993(%rip), %rdi
100008981: e8 62 1f 00 00              	callq	8034 <dyld_stub_binder+0x10000a8e8>
100008986: e9 56 00 00 00              	jmp	86 <_ft_check_content+0x81>
10000898b: 48 8b 45 f8                 	movq	-8(%rbp), %rax
10000898f: 48 8b 40 70                 	movq	112(%rax), %rax
100008993: 83 78 0c 00                 	cmpl	$0, 12(%rax)
100008997: 0f 85 11 00 00 00           	jne	17 <_ft_check_content+0x4e>
10000899d: 48 8d 3d 51 46 00 00        	leaq	18001(%rip), %rdi
1000089a4: e8 3f 1f 00 00              	callq	7999 <dyld_stub_binder+0x10000a8e8>
1000089a9: e9 2e 00 00 00              	jmp	46 <_ft_check_content+0x7c>
1000089ae: 48 8b 45 f8                 	movq	-8(%rbp), %rax
1000089b2: 48 8b 40 70                 	movq	112(%rax), %rax
1000089b6: 83 78 08 00                 	cmpl	$0, 8(%rax)
1000089ba: 0f 85 11 00 00 00           	jne	17 <_ft_check_content+0x71>
1000089c0: 48 8d 3d 55 46 00 00        	leaq	18005(%rip), %rdi
1000089c7: e8 1c 1f 00 00              	callq	7964 <dyld_stub_binder+0x10000a8e8>
1000089cc: e9 06 00 00 00              	jmp	6 <_ft_check_content+0x77>
1000089d1: 48 83 c4 10                 	addq	$16, %rsp
1000089d5: 5d                          	popq	%rbp
1000089d6: c3                          	retq
1000089d7: e9 00 00 00 00              	jmp	0 <_ft_check_content+0x7c>
1000089dc: e9 00 00 00 00              	jmp	0 <_ft_check_content+0x81>
1000089e1: bf 01 00 00 00              	movl	$1, %edi
1000089e6: e8 c5 1d 00 00              	callq	7621 <dyld_stub_binder+0x10000a7b0>
1000089eb: 0f 1f 44 00 00              	nopl	(%rax,%rax)

00000001000089f0 _ft_check_tile:
1000089f0: 55                          	pushq	%rbp
1000089f1: 48 89 e5                    	movq	%rsp, %rbp
1000089f4: 48 83 ec 20                 	subq	$32, %rsp
1000089f8: 40 88 7d ff                 	movb	%dil, -1(%rbp)
1000089fc: 89 75 f8                    	movl	%esi, -8(%rbp)
1000089ff: 89 55 f4                    	movl	%edx, -12(%rbp)
100008a02: 48 89 4d e8                 	movq	%rcx, -24(%rbp)
100008a06: 48 8b 45 e8                 	movq	-24(%rbp), %rax
100008a0a: 8b 50 28                    	movl	40(%rax), %edx
100008a0d: 89 55 e4                    	movl	%edx, -28(%rbp)
100008a10: 48 8b 45 e8                 	movq	-24(%rbp), %rax
100008a14: 8b 50 24                    	movl	36(%rax), %edx
100008a17: 89 55 e0                    	movl	%edx, -32(%rbp)
100008a1a: 0f be 55 ff                 	movsbl	-1(%rbp), %edx
100008a1e: 83 fa 30                    	cmpl	$48, %edx
100008a21: 0f 84 4a 00 00 00           	je	74 <_ft_check_tile+0x81>
100008a27: 0f be 45 ff                 	movsbl	-1(%rbp), %eax
100008a2b: 83 f8 31                    	cmpl	$49, %eax
100008a2e: 0f 84 3d 00 00 00           	je	61 <_ft_check_tile+0x81>
100008a34: 0f be 45 ff                 	movsbl	-1(%rbp), %eax
100008a38: 83 f8 43                    	cmpl	$67, %eax
100008a3b: 0f 84 30 00 00 00           	je	48 <_ft_check_tile+0x81>
100008a41: 0f be 45 ff                 	movsbl	-1(%rbp), %eax
100008a45: 83 f8 50                    	cmpl	$80, %eax
100008a48: 0f 84 23 00 00 00           	je	35 <_ft_check_tile+0x81>
100008a4e: 0f be 45 ff                 	movsbl	-1(%rbp), %eax
100008a52: 83 f8 45                    	cmpl	$69, %eax
100008a55: 0f 84 16 00 00 00           	je	22 <_ft_check_tile+0x81>
100008a5b: 48 8d 3d 15 45 00 00        	leaq	17685(%rip), %rdi
100008a62: e8 81 1e 00 00              	callq	7809 <dyld_stub_binder+0x10000a8e8>
100008a67: bf 01 00 00 00              	movl	$1, %edi
100008a6c: e8 3f 1d 00 00              	callq	7487 <dyld_stub_binder+0x10000a7b0>
100008a71: 83 7d f8 00                 	cmpl	$0, -8(%rbp)
100008a75: 0f 84 2c 00 00 00           	je	44 <_ft_check_tile+0xb7>
100008a7b: 83 7d f4 00                 	cmpl	$0, -12(%rbp)
100008a7f: 0f 84 22 00 00 00           	je	34 <_ft_check_tile+0xb7>
100008a85: 8b 45 f8                    	movl	-8(%rbp), %eax
100008a88: 8b 4d e0                    	movl	-32(%rbp), %ecx
100008a8b: 83 e9 01                    	subl	$1, %ecx
100008a8e: 39 c8                       	cmpl	%ecx, %eax
100008a90: 0f 84 11 00 00 00           	je	17 <_ft_check_tile+0xb7>
100008a96: 8b 45 f4                    	movl	-12(%rbp), %eax
100008a99: 8b 4d e4                    	movl	-28(%rbp), %ecx
100008a9c: 83 e9 01                    	subl	$1, %ecx
100008a9f: 39 c8                       	cmpl	%ecx, %eax
100008aa1: 0f 85 23 00 00 00           	jne	35 <_ft_check_tile+0xda>
100008aa7: 0f be 45 ff                 	movsbl	-1(%rbp), %eax
100008aab: 83 f8 31                    	cmpl	$49, %eax
100008aae: 0f 84 16 00 00 00           	je	22 <_ft_check_tile+0xda>
100008ab4: 48 8d 3d e6 44 00 00        	leaq	17638(%rip), %rdi
100008abb: e8 28 1e 00 00              	callq	7720 <dyld_stub_binder+0x10000a8e8>
100008ac0: bf 01 00 00 00              	movl	$1, %edi
100008ac5: e8 e6 1c 00 00              	callq	7398 <dyld_stub_binder+0x10000a7b0>
100008aca: 0f be 45 ff                 	movsbl	-1(%rbp), %eax
100008ace: 83 f8 43                    	cmpl	$67, %eax
100008ad1: 0f 85 16 00 00 00           	jne	22 <_ft_check_tile+0xfd>
100008ad7: 48 8b 45 e8                 	movq	-24(%rbp), %rax
100008adb: 48 8b 40 70                 	movq	112(%rax), %rax
100008adf: 8b 48 08                    	movl	8(%rax), %ecx
100008ae2: 83 c1 01                    	addl	$1, %ecx
100008ae5: 89 48 08                    	movl	%ecx, 8(%rax)
100008ae8: e9 47 00 00 00              	jmp	71 <_ft_check_tile+0x144>
100008aed: 0f be 45 ff                 	movsbl	-1(%rbp), %eax
100008af1: 83 f8 50                    	cmpl	$80, %eax
100008af4: 0f 85 12 00 00 00           	jne	18 <_ft_check_tile+0x11c>
100008afa: 48 8b 45 e8                 	movq	-24(%rbp), %rax
100008afe: 8b 48 10                    	movl	16(%rax), %ecx
100008b01: 83 c1 01                    	addl	$1, %ecx
100008b04: 89 48 10                    	movl	%ecx, 16(%rax)
100008b07: e9 23 00 00 00              	jmp	35 <_ft_check_tile+0x13f>
100008b0c: 0f be 45 ff                 	movsbl	-1(%rbp), %eax
100008b10: 83 f8 45                    	cmpl	$69, %eax
100008b13: 0f 85 11 00 00 00           	jne	17 <_ft_check_tile+0x13a>
100008b19: 48 8b 45 e8                 	movq	-24(%rbp), %rax
100008b1d: 48 8b 40 70                 	movq	112(%rax), %rax
100008b21: 8b 48 0c                    	movl	12(%rax), %ecx
100008b24: 83 c1 01                    	addl	$1, %ecx
100008b27: 89 48 0c                    	movl	%ecx, 12(%rax)
100008b2a: e9 00 00 00 00              	jmp	0 <_ft_check_tile+0x13f>
100008b2f: e9 00 00 00 00              	jmp	0 <_ft_check_tile+0x144>
100008b34: 48 83 c4 20                 	addq	$32, %rsp
100008b38: 5d                          	popq	%rbp
100008b39: c3                          	retq
100008b3a: 90                          	nop
100008b3b: 90                          	nop
100008b3c: 90                          	nop
100008b3d: 90                          	nop
100008b3e: 90                          	nop
100008b3f: 90                          	nop

0000000100008b40 _ft_freegame:
100008b40: 55                          	pushq	%rbp
100008b41: 48 89 e5                    	movq	%rsp, %rbp
100008b44: 48 83 ec 30                 	subq	$48, %rsp
100008b48: 48 89 7d f8                 	movq	%rdi, -8(%rbp)
100008b4c: 48 8b 45 f8                 	movq	-8(%rbp), %rax
100008b50: 48 8b 40 70                 	movq	112(%rax), %rax
100008b54: 48 8b 00                    	movq	(%rax), %rax
100008b57: 48 89 c7                    	movq	%rax, %rdi
100008b5a: e8 5d 1c 00 00              	callq	7261 <dyld_stub_binder+0x10000a7bc>
100008b5f: 48 8b 45 f8                 	movq	-8(%rbp), %rax
100008b63: 48 8b 38                    	movq	(%rax), %rdi
100008b66: 48 8b 45 f8                 	movq	-8(%rbp), %rax
100008b6a: 48 8b 70 60                 	movq	96(%rax), %rsi
100008b6e: e8 8d e9 ff ff              	callq	-5747 <_mlx_destroy_image>
100008b73: 48 8b 4d f8                 	movq	-8(%rbp), %rcx
100008b77: 48 8b 39                    	movq	(%rcx), %rdi
100008b7a: 48 8b 4d f8                 	movq	-8(%rbp), %rcx
100008b7e: 48 8b 71 58                 	movq	88(%rcx), %rsi
100008b82: 89 45 f4                    	movl	%eax, -12(%rbp)
100008b85: e8 76 e9 ff ff              	callq	-5770 <_mlx_destroy_image>
100008b8a: 48 8b 4d f8                 	movq	-8(%rbp), %rcx
100008b8e: 48 8b 39                    	movq	(%rcx), %rdi
100008b91: 48 8b 4d f8                 	movq	-8(%rbp), %rcx
100008b95: 48 8b 71 68                 	movq	104(%rcx), %rsi
100008b99: 89 45 f0                    	movl	%eax, -16(%rbp)
100008b9c: e8 5f e9 ff ff              	callq	-5793 <_mlx_destroy_image>
100008ba1: 48 8b 4d f8                 	movq	-8(%rbp), %rcx
100008ba5: 48 8b 39                    	movq	(%rcx), %rdi
100008ba8: 48 8b 4d f8                 	movq	-8(%rbp), %rcx
100008bac: 48 8b 71 38                 	movq	56(%rcx), %rsi
100008bb0: 89 45 ec                    	movl	%eax, -20(%rbp)
100008bb3: e8 48 e9 ff ff              	callq	-5816 <_mlx_destroy_image>
100008bb8: 48 8b 4d f8                 	movq	-8(%rbp), %rcx
100008bbc: 48 8b 39                    	movq	(%rcx), %rdi
100008bbf: 48 8b 4d f8                 	movq	-8(%rbp), %rcx
100008bc3: 48 8b 71 40                 	movq	64(%rcx), %rsi
100008bc7: 89 45 e8                    	movl	%eax, -24(%rbp)
100008bca: e8 31 e9 ff ff              	callq	-5839 <_mlx_destroy_image>
100008bcf: 48 8b 4d f8                 	movq	-8(%rbp), %rcx
100008bd3: 48 8b 39                    	movq	(%rcx), %rdi
100008bd6: 48 8b 4d f8                 	movq	-8(%rbp), %rcx
100008bda: 48 8b 71 48                 	movq	72(%rcx), %rsi
100008bde: 89 45 e4                    	movl	%eax, -28(%rbp)
100008be1: e8 1a e9 ff ff              	callq	-5862 <_mlx_destroy_image>
100008be6: 48 8b 4d f8                 	movq	-8(%rbp), %rcx
100008bea: 48 8b 39                    	movq	(%rcx), %rdi
100008bed: 48 8b 4d f8                 	movq	-8(%rbp), %rcx
100008bf1: 48 8b 71 30                 	movq	48(%rcx), %rsi
100008bf5: 89 45 e0                    	movl	%eax, -32(%rbp)
100008bf8: e8 03 e9 ff ff              	callq	-5885 <_mlx_destroy_image>
100008bfd: 48 8b 4d f8                 	movq	-8(%rbp), %rcx
100008c01: 48 8b 39                    	movq	(%rcx), %rdi
100008c04: 48 8b 4d f8                 	movq	-8(%rbp), %rcx
100008c08: 48 8b 71 08                 	movq	8(%rcx), %rsi
100008c0c: 89 45 dc                    	movl	%eax, -36(%rbp)
100008c0f: e8 9c dd ff ff              	callq	-8804 <_mlx_destroy_window>
100008c14: 48 83 c4 30                 	addq	$48, %rsp
100008c18: 5d                          	popq	%rbp
100008c19: c3                          	retq
100008c1a: 66 0f 1f 44 00 00           	nopw	(%rax,%rax)

0000000100008c20 _ft_key_hook:
100008c20: 55                          	pushq	%rbp
100008c21: 48 89 e5                    	movq	%rsp, %rbp
100008c24: 48 83 ec 10                 	subq	$16, %rsp
100008c28: 89 7d fc                    	movl	%edi, -4(%rbp)
100008c2b: 48 89 75 f0                 	movq	%rsi, -16(%rbp)
100008c2f: 83 7d fc 35                 	cmpl	$53, -4(%rbp)
100008c33: 0f 85 0e 00 00 00           	jne	14 <_ft_key_hook+0x27>
100008c39: 48 8b 7d f0                 	movq	-16(%rbp), %rdi
100008c3d: e8 ce 04 00 00              	callq	1230 <_ft_exit>
100008c42: e9 cf 00 00 00              	jmp	207 <_ft_key_hook+0xf6>
100008c47: 83 7d fc 00                 	cmpl	$0, -4(%rbp)
100008c4b: 0f 85 26 00 00 00           	jne	38 <_ft_key_hook+0x57>
100008c51: 48 8b 7d f0                 	movq	-16(%rbp), %rdi
100008c55: 48 8b 45 f0                 	movq	-16(%rbp), %rax
100008c59: 8b 48 1c                    	movl	28(%rax), %ecx
100008c5c: 83 e9 01                    	subl	$1, %ecx
100008c5f: 48 8b 45 f0                 	movq	-16(%rbp), %rax
100008c63: 8b 50 20                    	movl	32(%rax), %edx
100008c66: 89 ce                       	movl	%ecx, %esi
100008c68: b9 4c 00 00 00              	movl	$76, %ecx
100008c6d: e8 2e 01 00 00              	callq	302 <_ft_move>
100008c72: e9 9a 00 00 00              	jmp	154 <_ft_key_hook+0xf1>
100008c77: 83 7d fc 01                 	cmpl	$1, -4(%rbp)
100008c7b: 0f 85 26 00 00 00           	jne	38 <_ft_key_hook+0x87>
100008c81: 48 8b 7d f0                 	movq	-16(%rbp), %rdi
100008c85: 48 8b 45 f0                 	movq	-16(%rbp), %rax
100008c89: 8b 70 1c                    	movl	28(%rax), %esi
100008c8c: 48 8b 45 f0                 	movq	-16(%rbp), %rax
100008c90: 8b 48 20                    	movl	32(%rax), %ecx
100008c93: 83 c1 01                    	addl	$1, %ecx
100008c96: 89 ca                       	movl	%ecx, %edx
100008c98: b9 44 00 00 00              	movl	$68, %ecx
100008c9d: e8 fe 00 00 00              	callq	254 <_ft_move>
100008ca2: e9 65 00 00 00              	jmp	101 <_ft_key_hook+0xec>
100008ca7: 83 7d fc 0d                 	cmpl	$13, -4(%rbp)
100008cab: 0f 85 26 00 00 00           	jne	38 <_ft_key_hook+0xb7>
100008cb1: 48 8b 7d f0                 	movq	-16(%rbp), %rdi
100008cb5: 48 8b 45 f0                 	movq	-16(%rbp), %rax
100008cb9: 8b 70 1c                    	movl	28(%rax), %esi
100008cbc: 48 8b 45 f0                 	movq	-16(%rbp), %rax
100008cc0: 8b 48 20                    	movl	32(%rax), %ecx
100008cc3: 83 e9 01                    	subl	$1, %ecx
100008cc6: 89 ca                       	movl	%ecx, %edx
100008cc8: b9 55 00 00 00              	movl	$85, %ecx
100008ccd: e8 ce 00 00 00              	callq	206 <_ft_move>
100008cd2: e9 30 00 00 00              	jmp	48 <_ft_key_hook+0xe7>
100008cd7: 83 7d fc 02                 	cmpl	$2, -4(%rbp)
100008cdb: 0f 85 21 00 00 00           	jne	33 <_ft_key_hook+0xe2>
100008ce1: 48 8b 7d f0                 	movq	-16(%rbp), %rdi
100008ce5: 48 8b 45 f0                 	movq	-16(%rbp), %rax
100008ce9: 8b 48 1c                    	movl	28(%rax), %ecx
100008cec: 83 c1 01                    	addl	$1, %ecx
100008cef: 48 8b 45 f0                 	movq	-16(%rbp), %rax
100008cf3: 8b 50 20                    	movl	32(%rax), %edx
100008cf6: 89 ce                       	movl	%ecx, %esi
100008cf8: b9 52 00 00 00              	movl	$82, %ecx
100008cfd: e8 9e 00 00 00              	callq	158 <_ft_move>
100008d02: e9 00 00 00 00              	jmp	0 <_ft_key_hook+0xe7>
100008d07: e9 00 00 00 00              	jmp	0 <_ft_key_hook+0xec>
100008d0c: e9 00 00 00 00              	jmp	0 <_ft_key_hook+0xf1>
100008d11: e9 00 00 00 00              	jmp	0 <_ft_key_hook+0xf6>
100008d16: 48 8b 45 f0                 	movq	-16(%rbp), %rax
100008d1a: 48 8b 40 70                 	movq	112(%rax), %rax
100008d1e: 48 8b 00                    	movq	(%rax), %rax
100008d21: 48 8b 4d f0                 	movq	-16(%rbp), %rcx
100008d25: 48 63 49 20                 	movslq	32(%rcx), %rcx
100008d29: 48 8b 04 c8                 	movq	(%rax,%rcx,8), %rax
100008d2d: 48 8b 4d f0                 	movq	-16(%rbp), %rcx
100008d31: 48 63 49 1c                 	movslq	28(%rcx), %rcx
100008d35: 0f be 14 08                 	movsbl	(%rax,%rcx), %edx
100008d39: 83 fa 45                    	cmpl	$69, %edx
100008d3c: 0f 85 09 00 00 00           	jne	9 <_ft_key_hook+0x12b>
100008d42: 48 8b 7d f0                 	movq	-16(%rbp), %rdi
100008d46: e8 15 00 00 00              	callq	21 <_ft_checkwin>
100008d4b: 31 c0                       	xorl	%eax, %eax
100008d4d: 48 83 c4 10                 	addq	$16, %rsp
100008d51: 5d                          	popq	%rbp
100008d52: c3                          	retq
100008d53: 66 2e 0f 1f 84 00 00 00 00 00       	nopw	%cs:(%rax,%rax)
100008d5d: 0f 1f 00                    	nopl	(%rax)

0000000100008d60 _ft_checkwin:
100008d60: 55                          	pushq	%rbp
100008d61: 48 89 e5                    	movq	%rsp, %rbp
100008d64: 48 83 ec 10                 	subq	$16, %rsp
100008d68: 48 89 7d f8                 	movq	%rdi, -8(%rbp)
100008d6c: 48 8b 45 f8                 	movq	-8(%rbp), %rax
100008d70: 8b 70 18                    	movl	24(%rax), %esi
100008d73: 48 8d 3d ce 42 00 00        	leaq	17102(%rip), %rdi
100008d7a: 31 c9                       	xorl	%ecx, %ecx
100008d7c: 88 ca                       	movb	%cl, %dl
100008d7e: 88 d0                       	movb	%dl, %al
100008d80: 89 4d f4                    	movl	%ecx, -12(%rbp)
100008d83: e8 98 16 00 00              	callq	5784 <_ft_printf>
100008d88: 48 8b 7d f8                 	movq	-8(%rbp), %rdi
100008d8c: 89 45 f0                    	movl	%eax, -16(%rbp)
100008d8f: e8 ac fd ff ff              	callq	-596 <_ft_freegame>
100008d94: 8b 7d f4                    	movl	-12(%rbp), %edi
100008d97: e8 14 1a 00 00              	callq	6676 <dyld_stub_binder+0x10000a7b0>
100008d9c: 90                          	nop
100008d9d: 90                          	nop
100008d9e: 90                          	nop
100008d9f: 90                          	nop

0000000100008da0 _ft_move:
100008da0: 55                          	pushq	%rbp
100008da1: 48 89 e5                    	movq	%rsp, %rbp
100008da4: 48 83 ec 20                 	subq	$32, %rsp
100008da8: 48 89 7d f8                 	movq	%rdi, -8(%rbp)
100008dac: 89 75 f4                    	movl	%esi, -12(%rbp)
100008daf: 89 55 f0                    	movl	%edx, -16(%rbp)
100008db2: 88 4d ef                    	movb	%cl, -17(%rbp)
100008db5: 48 8b 45 f8                 	movq	-8(%rbp), %rax
100008db9: 48 8b 38                    	movq	(%rax), %rdi
100008dbc: 48 8b 45 f8                 	movq	-8(%rbp), %rax
100008dc0: 48 8b 70 08                 	movq	8(%rax), %rsi
100008dc4: 48 8b 45 f8                 	movq	-8(%rbp), %rax
100008dc8: 48 8b 50 50                 	movq	80(%rax), %rdx
100008dcc: 48 8b 45 f8                 	movq	-8(%rbp), %rax
100008dd0: 44 8b 40 1c                 	movl	28(%rax), %r8d
100008dd4: 41 c1 e0 05                 	shll	$5, %r8d
100008dd8: 48 8b 45 f8                 	movq	-8(%rbp), %rax
100008ddc: 44 8b 48 20                 	movl	32(%rax), %r9d
100008de0: 41 c1 e1 05                 	shll	$5, %r9d
100008de4: 44 89 c1                    	movl	%r8d, %ecx
100008de7: 45 89 c8                    	movl	%r9d, %r8d
100008dea: e8 41 e5 ff ff              	callq	-6847 <_mlx_put_image_to_window>
100008def: 48 8b 7d f8                 	movq	-8(%rbp), %rdi
100008df3: 8b 75 f4                    	movl	-12(%rbp), %esi
100008df6: 8b 55 f0                    	movl	-16(%rbp), %edx
100008df9: 89 45 e8                    	movl	%eax, -24(%rbp)
100008dfc: e8 9f 01 00 00              	callq	415 <_ft_check_collect>
100008e01: 48 8b 7d f8                 	movq	-8(%rbp), %rdi
100008e05: 48 8b 3f                    	movq	(%rdi), %rdi
100008e08: 4c 8b 55 f8                 	movq	-8(%rbp), %r10
100008e0c: 49 8b 72 08                 	movq	8(%r10), %rsi
100008e10: 4c 8b 55 f8                 	movq	-8(%rbp), %r10
100008e14: 49 8b 52 50                 	movq	80(%r10), %rdx
100008e18: 4c 8b 55 f8                 	movq	-8(%rbp), %r10
100008e1c: 41 8b 42 1c                 	movl	28(%r10), %eax
100008e20: c1 e0 05                    	shll	$5, %eax
100008e23: 4c 8b 55 f8                 	movq	-8(%rbp), %r10
100008e27: 41 8b 4a 20                 	movl	32(%r10), %ecx
100008e2b: c1 e1 05                    	shll	$5, %ecx
100008e2e: 89 4d e4                    	movl	%ecx, -28(%rbp)
100008e31: 89 c1                       	movl	%eax, %ecx
100008e33: 44 8b 45 e4                 	movl	-28(%rbp), %r8d
100008e37: e8 f4 e4 ff ff              	callq	-6924 <_mlx_put_image_to_window>
100008e3c: 0f be 4d ef                 	movsbl	-17(%rbp), %ecx
100008e40: 83 f9 55                    	cmpl	$85, %ecx
100008e43: 0f 85 37 00 00 00           	jne	55 <_ft_move+0xe0>
100008e49: 48 8b 45 f8                 	movq	-8(%rbp), %rax
100008e4d: 48 8b 38                    	movq	(%rax), %rdi
100008e50: 48 8b 45 f8                 	movq	-8(%rbp), %rax
100008e54: 48 8b 70 08                 	movq	8(%rax), %rsi
100008e58: 48 8b 45 f8                 	movq	-8(%rbp), %rax
100008e5c: 48 8b 50 30                 	movq	48(%rax), %rdx
100008e60: 48 8b 45 f8                 	movq	-8(%rbp), %rax
100008e64: 8b 48 1c                    	movl	28(%rax), %ecx
100008e67: c1 e1 05                    	shll	$5, %ecx
100008e6a: 48 8b 45 f8                 	movq	-8(%rbp), %rax
100008e6e: 44 8b 40 20                 	movl	32(%rax), %r8d
100008e72: 41 c1 e0 05                 	shll	$5, %r8d
100008e76: e8 b5 e4 ff ff              	callq	-6987 <_mlx_put_image_to_window>
100008e7b: e9 d6 00 00 00              	jmp	214 <_ft_move+0x1b6>
100008e80: 0f be 45 ef                 	movsbl	-17(%rbp), %eax
100008e84: 83 f8 44                    	cmpl	$68, %eax
100008e87: 0f 85 37 00 00 00           	jne	55 <_ft_move+0x124>
100008e8d: 48 8b 45 f8                 	movq	-8(%rbp), %rax
100008e91: 48 8b 38                    	movq	(%rax), %rdi
100008e94: 48 8b 45 f8                 	movq	-8(%rbp), %rax
100008e98: 48 8b 70 08                 	movq	8(%rax), %rsi
100008e9c: 48 8b 45 f8                 	movq	-8(%rbp), %rax
100008ea0: 48 8b 50 38                 	movq	56(%rax), %rdx
100008ea4: 48 8b 45 f8                 	movq	-8(%rbp), %rax
100008ea8: 8b 48 1c                    	movl	28(%rax), %ecx
100008eab: c1 e1 05                    	shll	$5, %ecx
100008eae: 48 8b 45 f8                 	movq	-8(%rbp), %rax
100008eb2: 44 8b 40 20                 	movl	32(%rax), %r8d
100008eb6: 41 c1 e0 05                 	shll	$5, %r8d
100008eba: e8 71 e4 ff ff              	callq	-7055 <_mlx_put_image_to_window>
100008ebf: e9 8d 00 00 00              	jmp	141 <_ft_move+0x1b1>
100008ec4: 0f be 45 ef                 	movsbl	-17(%rbp), %eax
100008ec8: 83 f8 4c                    	cmpl	$76, %eax
100008ecb: 0f 85 37 00 00 00           	jne	55 <_ft_move+0x168>
100008ed1: 48 8b 45 f8                 	movq	-8(%rbp), %rax
100008ed5: 48 8b 38                    	movq	(%rax), %rdi
100008ed8: 48 8b 45 f8                 	movq	-8(%rbp), %rax
100008edc: 48 8b 70 08                 	movq	8(%rax), %rsi
100008ee0: 48 8b 45 f8                 	movq	-8(%rbp), %rax
100008ee4: 48 8b 50 40                 	movq	64(%rax), %rdx
100008ee8: 48 8b 45 f8                 	movq	-8(%rbp), %rax
100008eec: 8b 48 1c                    	movl	28(%rax), %ecx
100008eef: c1 e1 05                    	shll	$5, %ecx
100008ef2: 48 8b 45 f8                 	movq	-8(%rbp), %rax
100008ef6: 44 8b 40 20                 	movl	32(%rax), %r8d
100008efa: 41 c1 e0 05                 	shll	$5, %r8d
100008efe: e8 2d e4 ff ff              	callq	-7123 <_mlx_put_image_to_window>
100008f03: e9 44 00 00 00              	jmp	68 <_ft_move+0x1ac>
100008f08: 0f be 45 ef                 	movsbl	-17(%rbp), %eax
100008f0c: 83 f8 52                    	cmpl	$82, %eax
100008f0f: 0f 85 32 00 00 00           	jne	50 <_ft_move+0x1a7>
100008f15: 48 8b 45 f8                 	movq	-8(%rbp), %rax
100008f19: 48 8b 38                    	movq	(%rax), %rdi
100008f1c: 48 8b 45 f8                 	movq	-8(%rbp), %rax
100008f20: 48 8b 70 08                 	movq	8(%rax), %rsi
100008f24: 48 8b 45 f8                 	movq	-8(%rbp), %rax
100008f28: 48 8b 50 48                 	movq	72(%rax), %rdx
100008f2c: 48 8b 45 f8                 	movq	-8(%rbp), %rax
100008f30: 8b 48 1c                    	movl	28(%rax), %ecx
100008f33: c1 e1 05                    	shll	$5, %ecx
100008f36: 48 8b 45 f8                 	movq	-8(%rbp), %rax
100008f3a: 44 8b 40 20                 	movl	32(%rax), %r8d
100008f3e: 41 c1 e0 05                 	shll	$5, %r8d
100008f42: e8 e9 e3 ff ff              	callq	-7191 <_mlx_put_image_to_window>
100008f47: e9 00 00 00 00              	jmp	0 <_ft_move+0x1ac>
100008f4c: e9 00 00 00 00              	jmp	0 <_ft_move+0x1b1>
100008f51: e9 00 00 00 00              	jmp	0 <_ft_move+0x1b6>
100008f56: 48 8b 45 f8                 	movq	-8(%rbp), %rax
100008f5a: 48 8b 38                    	movq	(%rax), %rdi
100008f5d: e8 ae df ff ff              	callq	-8274 <_mlx_do_sync>
100008f62: 48 8b 4d f8                 	movq	-8(%rbp), %rcx
100008f66: 8b 51 18                    	movl	24(%rcx), %edx
100008f69: 83 c2 01                    	addl	$1, %edx
100008f6c: 89 51 18                    	movl	%edx, 24(%rcx)
100008f6f: 48 8b 4d f8                 	movq	-8(%rbp), %rcx
100008f73: 8b 71 18                    	movl	24(%rcx), %esi
100008f76: 48 8b 4d f8                 	movq	-8(%rbp), %rcx
100008f7a: 8b 51 14                    	movl	20(%rcx), %edx
100008f7d: 48 8b 4d f8                 	movq	-8(%rbp), %rcx
100008f81: 48 8b 49 70                 	movq	112(%rcx), %rcx
100008f85: 8b 49 08                    	movl	8(%rcx), %ecx
100008f88: 48 8d 3d cf 40 00 00        	leaq	16591(%rip), %rdi
100008f8f: 89 45 e0                    	movl	%eax, -32(%rbp)
100008f92: b0 00                       	movb	$0, %al
100008f94: e8 87 14 00 00              	callq	5255 <_ft_printf>
100008f99: 48 83 c4 20                 	addq	$32, %rsp
100008f9d: 5d                          	popq	%rbp
100008f9e: c3                          	retq
100008f9f: 90                          	nop

0000000100008fa0 _ft_check_collect:
100008fa0: 55                          	pushq	%rbp
100008fa1: 48 89 e5                    	movq	%rsp, %rbp
100008fa4: 48 83 ec 20                 	subq	$32, %rsp
100008fa8: 48 89 7d f8                 	movq	%rdi, -8(%rbp)
100008fac: 89 75 f4                    	movl	%esi, -12(%rbp)
100008faf: 89 55 f0                    	movl	%edx, -16(%rbp)
100008fb2: 48 8b 45 f8                 	movq	-8(%rbp), %rax
100008fb6: 48 8b 40 70                 	movq	112(%rax), %rax
100008fba: 48 8b 00                    	movq	(%rax), %rax
100008fbd: 48 63 4d f0                 	movslq	-16(%rbp), %rcx
100008fc1: 48 8b 04 c8                 	movq	(%rax,%rcx,8), %rax
100008fc5: 48 63 4d f4                 	movslq	-12(%rbp), %rcx
100008fc9: 44 8a 04 08                 	movb	(%rax,%rcx), %r8b
100008fcd: 44 88 45 ef                 	movb	%r8b, -17(%rbp)
100008fd1: 0f be 55 ef                 	movsbl	-17(%rbp), %edx
100008fd5: 83 fa 43                    	cmpl	$67, %edx
100008fd8: 0f 85 28 00 00 00           	jne	40 <_ft_check_collect+0x66>
100008fde: 48 8b 45 f8                 	movq	-8(%rbp), %rax
100008fe2: 8b 48 14                    	movl	20(%rax), %ecx
100008fe5: 83 c1 01                    	addl	$1, %ecx
100008fe8: 89 48 14                    	movl	%ecx, 20(%rax)
100008feb: 48 8b 45 f8                 	movq	-8(%rbp), %rax
100008fef: 48 8b 40 70                 	movq	112(%rax), %rax
100008ff3: 48 8b 00                    	movq	(%rax), %rax
100008ff6: 48 63 55 f0                 	movslq	-16(%rbp), %rdx
100008ffa: 48 8b 04 d0                 	movq	(%rax,%rdx,8), %rax
100008ffe: 48 63 55 f4                 	movslq	-12(%rbp), %rdx
100009002: c6 04 10 30                 	movb	$48, (%rax,%rdx)
100009006: 0f be 45 ef                 	movsbl	-17(%rbp), %eax
10000900a: 83 f8 45                    	cmpl	$69, %eax
10000900d: 0f 85 18 00 00 00           	jne	24 <_ft_check_collect+0x8b>
100009013: 48 8b 45 f8                 	movq	-8(%rbp), %rax
100009017: 8b 48 14                    	movl	20(%rax), %ecx
10000901a: 48 8b 45 f8                 	movq	-8(%rbp), %rax
10000901e: 48 8b 40 70                 	movq	112(%rax), %rax
100009022: 3b 48 08                    	cmpl	8(%rax), %ecx
100009025: 0f 8c 26 00 00 00           	jl	38 <_ft_check_collect+0xb1>
10000902b: 0f be 45 ef                 	movsbl	-17(%rbp), %eax
10000902f: 83 f8 31                    	cmpl	$49, %eax
100009032: 0f 84 19 00 00 00           	je	25 <_ft_check_collect+0xb1>
100009038: 8b 45 f4                    	movl	-12(%rbp), %eax
10000903b: 48 8b 4d f8                 	movq	-8(%rbp), %rcx
10000903f: 89 41 1c                    	movl	%eax, 28(%rcx)
100009042: 8b 45 f0                    	movl	-16(%rbp), %eax
100009045: 48 8b 4d f8                 	movq	-8(%rbp), %rcx
100009049: 89 41 20                    	movl	%eax, 32(%rcx)
10000904c: e9 23 00 00 00              	jmp	35 <_ft_check_collect+0xd4>
100009051: 0f be 45 ef                 	movsbl	-17(%rbp), %eax
100009055: 83 f8 45                    	cmpl	$69, %eax
100009058: 0f 85 11 00 00 00           	jne	17 <_ft_check_collect+0xcf>
10000905e: 48 8d 3d 20 40 00 00        	leaq	16416(%rip), %rdi
100009065: be 01 00 00 00              	movl	$1, %esi
10000906a: e8 d1 07 00 00              	callq	2001 <_ft_putstr_fd>
10000906f: e9 00 00 00 00              	jmp	0 <_ft_check_collect+0xd4>
100009074: 48 83 c4 20                 	addq	$32, %rsp
100009078: 5d                          	popq	%rbp
100009079: c3                          	retq
10000907a: 90                          	nop
10000907b: 90                          	nop
10000907c: 90                          	nop
10000907d: 90                          	nop
10000907e: 90                          	nop
10000907f: 90                          	nop

0000000100009080 _ft_putbg:
100009080: 55                          	pushq	%rbp
100009081: 48 89 e5                    	movq	%rsp, %rbp
100009084: 48 83 ec 10                 	subq	$16, %rsp
100009088: 48 89 7d f8                 	movq	%rdi, -8(%rbp)
10000908c: c7 45 f4 00 00 00 00        	movl	$0, -12(%rbp)
100009093: 8b 45 f4                    	movl	-12(%rbp), %eax
100009096: 48 8b 4d f8                 	movq	-8(%rbp), %rcx
10000909a: 3b 41 28                    	cmpl	40(%rcx), %eax
10000909d: 0f 8d 5d 00 00 00           	jge	93 <_ft_putbg+0x80>
1000090a3: c7 45 f0 00 00 00 00        	movl	$0, -16(%rbp)
1000090aa: 8b 45 f0                    	movl	-16(%rbp), %eax
1000090ad: 48 8b 4d f8                 	movq	-8(%rbp), %rcx
1000090b1: 3b 41 24                    	cmpl	36(%rcx), %eax
1000090b4: 0f 8d 38 00 00 00           	jge	56 <_ft_putbg+0x72>
1000090ba: 48 8b 45 f8                 	movq	-8(%rbp), %rax
1000090be: 48 8b 38                    	movq	(%rax), %rdi
1000090c1: 48 8b 45 f8                 	movq	-8(%rbp), %rax
1000090c5: 48 8b 70 08                 	movq	8(%rax), %rsi
1000090c9: 48 8b 45 f8                 	movq	-8(%rbp), %rax
1000090cd: 48 8b 50 50                 	movq	80(%rax), %rdx
1000090d1: 8b 4d f0                    	movl	-16(%rbp), %ecx
1000090d4: c1 e1 05                    	shll	$5, %ecx
1000090d7: 44 8b 45 f4                 	movl	-12(%rbp), %r8d
1000090db: 41 c1 e0 05                 	shll	$5, %r8d
1000090df: e8 4c e2 ff ff              	callq	-7604 <_mlx_put_image_to_window>
1000090e4: 8b 4d f0                    	movl	-16(%rbp), %ecx
1000090e7: 83 c1 01                    	addl	$1, %ecx
1000090ea: 89 4d f0                    	movl	%ecx, -16(%rbp)
1000090ed: e9 b8 ff ff ff              	jmp	-72 <_ft_putbg+0x2a>
1000090f2: 8b 45 f4                    	movl	-12(%rbp), %eax
1000090f5: 83 c0 01                    	addl	$1, %eax
1000090f8: 89 45 f4                    	movl	%eax, -12(%rbp)
1000090fb: e9 93 ff ff ff              	jmp	-109 <_ft_putbg+0x13>
100009100: 48 83 c4 10                 	addq	$16, %rsp
100009104: 5d                          	popq	%rbp
100009105: c3                          	retq
100009106: 90                          	nop
100009107: 90                          	nop
100009108: 90                          	nop
100009109: 90                          	nop
10000910a: 90                          	nop
10000910b: 90                          	nop
10000910c: 90                          	nop
10000910d: 90                          	nop
10000910e: 90                          	nop
10000910f: 90                          	nop

0000000100009110 _ft_exit:
100009110: 55                          	pushq	%rbp
100009111: 48 89 e5                    	movq	%rsp, %rbp
100009114: 48 83 ec 10                 	subq	$16, %rsp
100009118: 48 89 7d f8                 	movq	%rdi, -8(%rbp)
10000911c: 48 8b 45 f8                 	movq	-8(%rbp), %rax
100009120: 48 8b 38                    	movq	(%rax), %rdi
100009123: 48 8b 70 08                 	movq	8(%rax), %rsi
100009127: e8 84 d8 ff ff              	callq	-10108 <_mlx_destroy_window>
10000912c: 48 8d 3d 6e 3f 00 00        	leaq	16238(%rip), %rdi
100009133: be 01 00 00 00              	movl	$1, %esi
100009138: 89 45 f4                    	movl	%eax, -12(%rbp)
10000913b: e8 00 07 00 00              	callq	1792 <_ft_putstr_fd>
100009140: 31 ff                       	xorl	%edi, %edi
100009142: e8 69 16 00 00              	callq	5737 <dyld_stub_binder+0x10000a7b0>
100009147: 66 0f 1f 84 00 00 00 00 00  	nopw	(%rax,%rax)

0000000100009150 _ft_render:
100009150: 55                          	pushq	%rbp
100009151: 48 89 e5                    	movq	%rsp, %rbp
100009154: 48 83 ec 30                 	subq	$48, %rsp
100009158: 48 89 7d f8                 	movq	%rdi, -8(%rbp)
10000915c: c7 45 f0 00 00 00 00        	movl	$0, -16(%rbp)
100009163: 8b 45 f0                    	movl	-16(%rbp), %eax
100009166: 48 8b 4d f8                 	movq	-8(%rbp), %rcx
10000916a: 3b 41 28                    	cmpl	40(%rcx), %eax
10000916d: 0f 8d 69 00 00 00           	jge	105 <_ft_render+0x8c>
100009173: c7 45 f4 00 00 00 00        	movl	$0, -12(%rbp)
10000917a: 8b 45 f4                    	movl	-12(%rbp), %eax
10000917d: 48 8b 4d f8                 	movq	-8(%rbp), %rcx
100009181: 3b 41 24                    	cmpl	36(%rcx), %eax
100009184: 0f 8d 44 00 00 00           	jge	68 <_ft_render+0x7e>
10000918a: 48 8b 7d f8                 	movq	-8(%rbp), %rdi
10000918e: 48 8b 45 f8                 	movq	-8(%rbp), %rax
100009192: 48 8b 40 70                 	movq	112(%rax), %rax
100009196: 48 8b 00                    	movq	(%rax), %rax
100009199: 48 63 4d f0                 	movslq	-16(%rbp), %rcx
10000919d: 48 8b 04 c8                 	movq	(%rax,%rcx,8), %rax
1000091a1: 48 63 4d f4                 	movslq	-12(%rbp), %rcx
1000091a5: 8a 14 08                    	movb	(%rax,%rcx), %dl
1000091a8: 8b 75 f4                    	movl	-12(%rbp), %esi
1000091ab: 8b 4d f0                    	movl	-16(%rbp), %ecx
1000091ae: 44 0f be c2                 	movsbl	%dl, %r8d
1000091b2: 89 75 ec                    	movl	%esi, -20(%rbp)
1000091b5: 44 89 c6                    	movl	%r8d, %esi
1000091b8: 8b 55 ec                    	movl	-20(%rbp), %edx
1000091bb: e8 70 00 00 00              	callq	112 <_ft_put>
1000091c0: 8b 4d f4                    	movl	-12(%rbp), %ecx
1000091c3: 83 c1 01                    	addl	$1, %ecx
1000091c6: 89 4d f4                    	movl	%ecx, -12(%rbp)
1000091c9: e9 ac ff ff ff              	jmp	-84 <_ft_render+0x2a>
1000091ce: 8b 45 f0                    	movl	-16(%rbp), %eax
1000091d1: 83 c0 01                    	addl	$1, %eax
1000091d4: 89 45 f0                    	movl	%eax, -16(%rbp)
1000091d7: e9 87 ff ff ff              	jmp	-121 <_ft_render+0x13>
1000091dc: 48 8d 05 2d ff ff ff        	leaq	-211(%rip), %rax
1000091e3: 48 8b 4d f8                 	movq	-8(%rbp), %rcx
1000091e7: 48 8b 79 08                 	movq	8(%rcx), %rdi
1000091eb: 48 8b 4d f8                 	movq	-8(%rbp), %rcx
1000091ef: be 11 00 00 00              	movl	$17, %esi
1000091f4: ba 04 00 00 00              	movl	$4, %edx
1000091f9: 48 89 4d e0                 	movq	%rcx, -32(%rbp)
1000091fd: 48 89 c1                    	movq	%rax, %rcx
100009200: 4c 8b 45 e0                 	movq	-32(%rbp), %r8
100009204: e8 c7 d6 ff ff              	callq	-10553 <_mlx_hook>
100009209: 48 8d 0d 10 fa ff ff        	leaq	-1520(%rip), %rcx
100009210: 48 8b 7d f8                 	movq	-8(%rbp), %rdi
100009214: 48 8b 7f 08                 	movq	8(%rdi), %rdi
100009218: 4c 8b 45 f8                 	movq	-8(%rbp), %r8
10000921c: 48 89 ce                    	movq	%rcx, %rsi
10000921f: 4c 89 c2                    	movq	%r8, %rdx
100009222: 89 45 dc                    	movl	%eax, -36(%rbp)
100009225: e8 66 d6 ff ff              	callq	-10650 <_mlx_key_hook>
10000922a: 48 83 c4 30                 	addq	$48, %rsp
10000922e: 5d                          	popq	%rbp
10000922f: c3                          	retq

0000000100009230 _ft_put:
100009230: 55                          	pushq	%rbp
100009231: 48 89 e5                    	movq	%rsp, %rbp
100009234: 48 83 ec 20                 	subq	$32, %rsp
100009238: 48 89 7d f8                 	movq	%rdi, -8(%rbp)
10000923c: 40 88 75 f7                 	movb	%sil, -9(%rbp)
100009240: 89 55 f0                    	movl	%edx, -16(%rbp)
100009243: 89 4d ec                    	movl	%ecx, -20(%rbp)
100009246: 0f be 45 f7                 	movsbl	-9(%rbp), %eax
10000924a: 83 f8 50                    	cmpl	$80, %eax
10000924d: 0f 85 43 00 00 00           	jne	67 <_ft_put+0x66>
100009253: 48 8b 45 f8                 	movq	-8(%rbp), %rax
100009257: 48 8b 38                    	movq	(%rax), %rdi
10000925a: 48 8b 45 f8                 	movq	-8(%rbp), %rax
10000925e: 48 8b 70 08                 	movq	8(%rax), %rsi
100009262: 48 8b 45 f8                 	movq	-8(%rbp), %rax
100009266: 48 8b 50 38                 	movq	56(%rax), %rdx
10000926a: 8b 4d f0                    	movl	-16(%rbp), %ecx
10000926d: c1 e1 05                    	shll	$5, %ecx
100009270: 44 8b 45 ec                 	movl	-20(%rbp), %r8d
100009274: 41 c1 e0 05                 	shll	$5, %r8d
100009278: e8 b3 e0 ff ff              	callq	-8013 <_mlx_put_image_to_window>
10000927d: 8b 4d f0                    	movl	-16(%rbp), %ecx
100009280: 48 8b 55 f8                 	movq	-8(%rbp), %rdx
100009284: 89 4a 1c                    	movl	%ecx, 28(%rdx)
100009287: 8b 4d ec                    	movl	-20(%rbp), %ecx
10000928a: 48 8b 55 f8                 	movq	-8(%rbp), %rdx
10000928e: 89 4a 20                    	movl	%ecx, 32(%rdx)
100009291: e9 be 00 00 00              	jmp	190 <_ft_put+0x124>
100009296: 0f be 45 f7                 	movsbl	-9(%rbp), %eax
10000929a: 83 f8 43                    	cmpl	$67, %eax
10000929d: 0f 85 2f 00 00 00           	jne	47 <_ft_put+0xa2>
1000092a3: 48 8b 45 f8                 	movq	-8(%rbp), %rax
1000092a7: 48 8b 38                    	movq	(%rax), %rdi
1000092aa: 48 8b 45 f8                 	movq	-8(%rbp), %rax
1000092ae: 48 8b 70 08                 	movq	8(%rax), %rsi
1000092b2: 48 8b 45 f8                 	movq	-8(%rbp), %rax
1000092b6: 48 8b 50 60                 	movq	96(%rax), %rdx
1000092ba: 8b 4d f0                    	movl	-16(%rbp), %ecx
1000092bd: c1 e1 05                    	shll	$5, %ecx
1000092c0: 44 8b 45 ec                 	movl	-20(%rbp), %r8d
1000092c4: 41 c1 e0 05                 	shll	$5, %r8d
1000092c8: e8 63 e0 ff ff              	callq	-8093 <_mlx_put_image_to_window>
1000092cd: e9 7d 00 00 00              	jmp	125 <_ft_put+0x11f>
1000092d2: 0f be 45 f7                 	movsbl	-9(%rbp), %eax
1000092d6: 83 f8 45                    	cmpl	$69, %eax
1000092d9: 0f 85 2f 00 00 00           	jne	47 <_ft_put+0xde>
1000092df: 48 8b 45 f8                 	movq	-8(%rbp), %rax
1000092e3: 48 8b 38                    	movq	(%rax), %rdi
1000092e6: 48 8b 45 f8                 	movq	-8(%rbp), %rax
1000092ea: 48 8b 70 08                 	movq	8(%rax), %rsi
1000092ee: 48 8b 45 f8                 	movq	-8(%rbp), %rax
1000092f2: 48 8b 50 68                 	movq	104(%rax), %rdx
1000092f6: 8b 4d f0                    	movl	-16(%rbp), %ecx
1000092f9: c1 e1 05                    	shll	$5, %ecx
1000092fc: 44 8b 45 ec                 	movl	-20(%rbp), %r8d
100009300: 41 c1 e0 05                 	shll	$5, %r8d
100009304: e8 27 e0 ff ff              	callq	-8153 <_mlx_put_image_to_window>
100009309: e9 3c 00 00 00              	jmp	60 <_ft_put+0x11a>
10000930e: 0f be 45 f7                 	movsbl	-9(%rbp), %eax
100009312: 83 f8 31                    	cmpl	$49, %eax
100009315: 0f 85 2a 00 00 00           	jne	42 <_ft_put+0x115>
10000931b: 48 8b 45 f8                 	movq	-8(%rbp), %rax
10000931f: 48 8b 38                    	movq	(%rax), %rdi
100009322: 48 8b 45 f8                 	movq	-8(%rbp), %rax
100009326: 48 8b 70 08                 	movq	8(%rax), %rsi
10000932a: 48 8b 45 f8                 	movq	-8(%rbp), %rax
10000932e: 48 8b 50 58                 	movq	88(%rax), %rdx
100009332: 8b 4d f0                    	movl	-16(%rbp), %ecx
100009335: c1 e1 05                    	shll	$5, %ecx
100009338: 44 8b 45 ec                 	movl	-20(%rbp), %r8d
10000933c: 41 c1 e0 05                 	shll	$5, %r8d
100009340: e8 eb df ff ff              	callq	-8213 <_mlx_put_image_to_window>
100009345: e9 00 00 00 00              	jmp	0 <_ft_put+0x11a>
10000934a: e9 00 00 00 00              	jmp	0 <_ft_put+0x11f>
10000934f: e9 00 00 00 00              	jmp	0 <_ft_put+0x124>
100009354: 48 83 c4 20                 	addq	$32, %rsp
100009358: 5d                          	popq	%rbp
100009359: c3                          	retq
10000935a: 90                          	nop
10000935b: 90                          	nop
10000935c: 90                          	nop
10000935d: 90                          	nop
10000935e: 90                          	nop
10000935f: 90                          	nop

0000000100009360 _ft_error:
100009360: 55                          	pushq	%rbp
100009361: 48 89 e5                    	movq	%rsp, %rbp
100009364: 48 8d 3d 40 3d 00 00        	leaq	15680(%rip), %rdi
10000936b: e8 78 15 00 00              	callq	5496 <dyld_stub_binder+0x10000a8e8>
100009370: bf 01 00 00 00              	movl	$1, %edi
100009375: e8 36 14 00 00              	callq	5174 <dyld_stub_binder+0x10000a7b0>
10000937a: 90                          	nop
10000937b: 90                          	nop
10000937c: 90                          	nop
10000937d: 90                          	nop
10000937e: 90                          	nop
10000937f: 90                          	nop

0000000100009380 _ft_memcpy:
100009380: 55                          	pushq	%rbp
100009381: 48 89 e5                    	movq	%rsp, %rbp
100009384: 48 89 7d f0                 	movq	%rdi, -16(%rbp)
100009388: 48 89 75 e8                 	movq	%rsi, -24(%rbp)
10000938c: 48 89 55 e0                 	movq	%rdx, -32(%rbp)
100009390: 48 c7 45 d8 00 00 00 00     	movq	$0, -40(%rbp)
100009398: 48 83 7d f0 00              	cmpq	$0, -16(%rbp)
10000939d: 0f 85 18 00 00 00           	jne	24 <_ft_memcpy+0x3b>
1000093a3: 48 83 7d e8 00              	cmpq	$0, -24(%rbp)
1000093a8: 0f 85 0d 00 00 00           	jne	13 <_ft_memcpy+0x3b>
1000093ae: 48 c7 45 f8 00 00 00 00     	movq	$0, -8(%rbp)
1000093b6: e9 44 00 00 00              	jmp	68 <_ft_memcpy+0x7f>
1000093bb: e9 00 00 00 00              	jmp	0 <_ft_memcpy+0x40>
1000093c0: 48 8b 45 d8                 	movq	-40(%rbp), %rax
1000093c4: 48 3b 45 e0                 	cmpq	-32(%rbp), %rax
1000093c8: 0f 83 29 00 00 00           	jae	41 <_ft_memcpy+0x77>
1000093ce: 48 8b 45 e8                 	movq	-24(%rbp), %rax
1000093d2: 48 8b 4d d8                 	movq	-40(%rbp), %rcx
1000093d6: 8a 14 08                    	movb	(%rax,%rcx), %dl
1000093d9: 48 8b 45 f0                 	movq	-16(%rbp), %rax
1000093dd: 48 8b 4d d8                 	movq	-40(%rbp), %rcx
1000093e1: 88 14 08                    	movb	%dl, (%rax,%rcx)
1000093e4: 48 8b 45 d8                 	movq	-40(%rbp), %rax
1000093e8: 48 05 01 00 00 00           	addq	$1, %rax
1000093ee: 48 89 45 d8                 	movq	%rax, -40(%rbp)
1000093f2: e9 c9 ff ff ff              	jmp	-55 <_ft_memcpy+0x40>
1000093f7: 48 8b 45 f0                 	movq	-16(%rbp), %rax
1000093fb: 48 89 45 f8                 	movq	%rax, -8(%rbp)
1000093ff: 48 8b 45 f8                 	movq	-8(%rbp), %rax
100009403: 5d                          	popq	%rbp
100009404: c3                          	retq
100009405: 90                          	nop
100009406: 90                          	nop
100009407: 90                          	nop
100009408: 90                          	nop
100009409: 90                          	nop
10000940a: 90                          	nop
10000940b: 90                          	nop
10000940c: 90                          	nop
10000940d: 90                          	nop
10000940e: 90                          	nop
10000940f: 90                          	nop

0000000100009410 _ft_strlen:
100009410: 55                          	pushq	%rbp
100009411: 48 89 e5                    	movq	%rsp, %rbp
100009414: 48 89 7d f8                 	movq	%rdi, -8(%rbp)
100009418: 48 c7 45 f0 00 00 00 00     	movq	$0, -16(%rbp)
100009420: 48 8b 45 f8                 	movq	-8(%rbp), %rax
100009424: 48 8b 4d f0                 	movq	-16(%rbp), %rcx
100009428: 0f be 14 08                 	movsbl	(%rax,%rcx), %edx
10000942c: 83 fa 00                    	cmpl	$0, %edx
10000942f: 0f 84 13 00 00 00           	je	19 <_ft_strlen+0x38>
100009435: 48 8b 45 f0                 	movq	-16(%rbp), %rax
100009439: 48 05 01 00 00 00           	addq	$1, %rax
10000943f: 48 89 45 f0                 	movq	%rax, -16(%rbp)
100009443: e9 d8 ff ff ff              	jmp	-40 <_ft_strlen+0x10>
100009448: 48 8b 45 f0                 	movq	-16(%rbp), %rax
10000944c: 5d                          	popq	%rbp
10000944d: c3                          	retq
10000944e: 90                          	nop
10000944f: 90                          	nop

0000000100009450 _ft_strchr:
100009450: 55                          	pushq	%rbp
100009451: 48 89 e5                    	movq	%rsp, %rbp
100009454: 48 83 ec 30                 	subq	$48, %rsp
100009458: 48 89 7d f0                 	movq	%rdi, -16(%rbp)
10000945c: 89 75 ec                    	movl	%esi, -20(%rbp)
10000945f: 48 c7 45 e0 00 00 00 00     	movq	$0, -32(%rbp)
100009467: 48 8b 45 e0                 	movq	-32(%rbp), %rax
10000946b: 48 8b 7d f0                 	movq	-16(%rbp), %rdi
10000946f: 48 89 45 d8                 	movq	%rax, -40(%rbp)
100009473: e8 98 ff ff ff              	callq	-104 <_ft_strlen>
100009478: 48 8b 4d d8                 	movq	-40(%rbp), %rcx
10000947c: 48 39 c1                    	cmpq	%rax, %rcx
10000947f: 0f 87 3f 00 00 00           	ja	63 <_ft_strchr+0x74>
100009485: 48 8b 45 f0                 	movq	-16(%rbp), %rax
100009489: 48 8b 4d e0                 	movq	-32(%rbp), %rcx
10000948d: 0f be 14 08                 	movsbl	(%rax,%rcx), %edx
100009491: 8b 75 ec                    	movl	-20(%rbp), %esi
100009494: 40 0f be fe                 	movsbl	%sil, %edi
100009498: 39 fa                       	cmpl	%edi, %edx
10000949a: 0f 85 11 00 00 00           	jne	17 <_ft_strchr+0x61>
1000094a0: 48 8b 45 f0                 	movq	-16(%rbp), %rax
1000094a4: 48 03 45 e0                 	addq	-32(%rbp), %rax
1000094a8: 48 89 45 f8                 	movq	%rax, -8(%rbp)
1000094ac: e9 1b 00 00 00              	jmp	27 <_ft_strchr+0x7c>
1000094b1: 48 8b 45 e0                 	movq	-32(%rbp), %rax
1000094b5: 48 05 01 00 00 00           	addq	$1, %rax
1000094bb: 48 89 45 e0                 	movq	%rax, -32(%rbp)
1000094bf: e9 a3 ff ff ff              	jmp	-93 <_ft_strchr+0x17>
1000094c4: 48 c7 45 f8 00 00 00 00     	movq	$0, -8(%rbp)
1000094cc: 48 8b 45 f8                 	movq	-8(%rbp), %rax
1000094d0: 48 83 c4 30                 	addq	$48, %rsp
1000094d4: 5d                          	popq	%rbp
1000094d5: c3                          	retq
1000094d6: 90                          	nop
1000094d7: 90                          	nop
1000094d8: 90                          	nop
1000094d9: 90                          	nop
1000094da: 90                          	nop
1000094db: 90                          	nop
1000094dc: 90                          	nop
1000094dd: 90                          	nop
1000094de: 90                          	nop
1000094df: 90                          	nop

00000001000094e0 _ft_bzero:
1000094e0: 55                          	pushq	%rbp
1000094e1: 48 89 e5                    	movq	%rsp, %rbp
1000094e4: 48 83 ec 10                 	subq	$16, %rsp
1000094e8: 31 c0                       	xorl	%eax, %eax
1000094ea: 48 89 7d f8                 	movq	%rdi, -8(%rbp)
1000094ee: 48 89 75 f0                 	movq	%rsi, -16(%rbp)
1000094f2: 48 8b 7d f8                 	movq	-8(%rbp), %rdi
1000094f6: 48 8b 55 f0                 	movq	-16(%rbp), %rdx
1000094fa: 89 c6                       	movl	%eax, %esi
1000094fc: e8 0f 00 00 00              	callq	15 <_ft_memset>
100009501: 48 83 c4 10                 	addq	$16, %rsp
100009505: 5d                          	popq	%rbp
100009506: c3                          	retq
100009507: 90                          	nop
100009508: 90                          	nop
100009509: 90                          	nop
10000950a: 90                          	nop
10000950b: 90                          	nop
10000950c: 90                          	nop
10000950d: 90                          	nop
10000950e: 90                          	nop
10000950f: 90                          	nop

0000000100009510 _ft_memset:
100009510: 55                          	pushq	%rbp
100009511: 48 89 e5                    	movq	%rsp, %rbp
100009514: 48 89 7d f8                 	movq	%rdi, -8(%rbp)
100009518: 89 75 f4                    	movl	%esi, -12(%rbp)
10000951b: 48 89 55 e8                 	movq	%rdx, -24(%rbp)
10000951f: 48 c7 45 e0 00 00 00 00     	movq	$0, -32(%rbp)
100009527: 48 8b 45 e0                 	movq	-32(%rbp), %rax
10000952b: 48 3b 45 e8                 	cmpq	-24(%rbp), %rax
10000952f: 0f 83 22 00 00 00           	jae	34 <_ft_memset+0x47>
100009535: 8b 45 f4                    	movl	-12(%rbp), %eax
100009538: 48 8b 4d f8                 	movq	-8(%rbp), %rcx
10000953c: 48 8b 55 e0                 	movq	-32(%rbp), %rdx
100009540: 88 04 11                    	movb	%al, (%rcx,%rdx)
100009543: 48 8b 4d e0                 	movq	-32(%rbp), %rcx
100009547: 48 81 c1 01 00 00 00        	addq	$1, %rcx
10000954e: 48 89 4d e0                 	movq	%rcx, -32(%rbp)
100009552: e9 d0 ff ff ff              	jmp	-48 <_ft_memset+0x17>
100009557: 48 8b 45 f8                 	movq	-8(%rbp), %rax
10000955b: 5d                          	popq	%rbp
10000955c: c3                          	retq
10000955d: 90                          	nop
10000955e: 90                          	nop
10000955f: 90                          	nop

0000000100009560 _ft_calloc:
100009560: 55                          	pushq	%rbp
100009561: 48 89 e5                    	movq	%rsp, %rbp
100009564: 48 83 ec 20                 	subq	$32, %rsp
100009568: 48 89 7d f0                 	movq	%rdi, -16(%rbp)
10000956c: 48 89 75 e8                 	movq	%rsi, -24(%rbp)
100009570: 48 83 7d f0 ff              	cmpq	$-1, -16(%rbp)
100009575: 0f 84 0b 00 00 00           	je	11 <_ft_calloc+0x26>
10000957b: 48 83 7d e8 ff              	cmpq	$-1, -24(%rbp)
100009580: 0f 85 0d 00 00 00           	jne	13 <_ft_calloc+0x33>
100009586: 48 c7 45 f8 00 00 00 00     	movq	$0, -8(%rbp)
10000958e: e9 4a 00 00 00              	jmp	74 <_ft_calloc+0x7d>
100009593: 48 8b 45 f0                 	movq	-16(%rbp), %rax
100009597: 48 0f af 45 e8              	imulq	-24(%rbp), %rax
10000959c: 48 89 c7                    	movq	%rax, %rdi
10000959f: e8 1a 13 00 00              	callq	4890 <dyld_stub_binder+0x10000a8be>
1000095a4: 48 89 45 e0                 	movq	%rax, -32(%rbp)
1000095a8: 48 83 7d e0 00              	cmpq	$0, -32(%rbp)
1000095ad: 0f 85 0d 00 00 00           	jne	13 <_ft_calloc+0x60>
1000095b3: 48 c7 45 f8 00 00 00 00     	movq	$0, -8(%rbp)
1000095bb: e9 1d 00 00 00              	jmp	29 <_ft_calloc+0x7d>
1000095c0: 48 8b 7d e0                 	movq	-32(%rbp), %rdi
1000095c4: 48 8b 45 f0                 	movq	-16(%rbp), %rax
1000095c8: 48 0f af 45 e8              	imulq	-24(%rbp), %rax
1000095cd: 48 89 c6                    	movq	%rax, %rsi
1000095d0: e8 0b ff ff ff              	callq	-245 <_ft_bzero>
1000095d5: 48 8b 45 e0                 	movq	-32(%rbp), %rax
1000095d9: 48 89 45 f8                 	movq	%rax, -8(%rbp)
1000095dd: 48 8b 45 f8                 	movq	-8(%rbp), %rax
1000095e1: 48 83 c4 20                 	addq	$32, %rsp
1000095e5: 5d                          	popq	%rbp
1000095e6: c3                          	retq
1000095e7: 90                          	nop
1000095e8: 90                          	nop
1000095e9: 90                          	nop
1000095ea: 90                          	nop
1000095eb: 90                          	nop
1000095ec: 90                          	nop
1000095ed: 90                          	nop
1000095ee: 90                          	nop
1000095ef: 90                          	nop

00000001000095f0 _ft_strnstr:
1000095f0: 55                          	pushq	%rbp
1000095f1: 48 89 e5                    	movq	%rsp, %rbp
1000095f4: 48 89 7d f0                 	movq	%rdi, -16(%rbp)
1000095f8: 48 89 75 e8                 	movq	%rsi, -24(%rbp)
1000095fc: 48 89 55 e0                 	movq	%rdx, -32(%rbp)
100009600: 48 c7 45 d8 00 00 00 00     	movq	$0, -40(%rbp)
100009608: 48 c7 45 d0 00 00 00 00     	movq	$0, -48(%rbp)
100009610: 48 8b 45 e8                 	movq	-24(%rbp), %rax
100009614: 80 38 00                    	cmpb	$0, (%rax)
100009617: 0f 85 0d 00 00 00           	jne	13 <_ft_strnstr+0x3a>
10000961d: 48 8b 45 f0                 	movq	-16(%rbp), %rax
100009621: 48 89 45 f8                 	movq	%rax, -8(%rbp)
100009625: e9 d9 00 00 00              	jmp	217 <_ft_strnstr+0x113>
10000962a: e9 00 00 00 00              	jmp	0 <_ft_strnstr+0x3f>
10000962f: 31 c0                       	xorl	%eax, %eax
100009631: 48 8b 4d d8                 	movq	-40(%rbp), %rcx
100009635: 48 3b 4d e0                 	cmpq	-32(%rbp), %rcx
100009639: 88 45 cf                    	movb	%al, -49(%rbp)
10000963c: 0f 83 17 00 00 00           	jae	23 <_ft_strnstr+0x69>
100009642: 48 8b 45 f0                 	movq	-16(%rbp), %rax
100009646: 48 8b 4d d8                 	movq	-40(%rbp), %rcx
10000964a: 0f be 14 08                 	movsbl	(%rax,%rcx), %edx
10000964e: 83 fa 00                    	cmpl	$0, %edx
100009651: 40 0f 95 c6                 	setne	%sil
100009655: 40 88 75 cf                 	movb	%sil, -49(%rbp)
100009659: 8a 45 cf                    	movb	-49(%rbp), %al
10000965c: a8 01                       	testb	$1, %al
10000965e: 0f 85 05 00 00 00           	jne	5 <_ft_strnstr+0x79>
100009664: e9 92 00 00 00              	jmp	146 <_ft_strnstr+0x10b>
100009669: 48 8b 45 f0                 	movq	-16(%rbp), %rax
10000966d: 48 8b 4d d8                 	movq	-40(%rbp), %rcx
100009671: 0f be 14 08                 	movsbl	(%rax,%rcx), %edx
100009675: 48 8b 45 e8                 	movq	-24(%rbp), %rax
100009679: 48 8b 4d d0                 	movq	-48(%rbp), %rcx
10000967d: 0f be 34 08                 	movsbl	(%rax,%rcx), %esi
100009681: 39 f2                       	cmpl	%esi, %edx
100009683: 0f 85 13 00 00 00           	jne	19 <_ft_strnstr+0xac>
100009689: 48 8b 45 d0                 	movq	-48(%rbp), %rax
10000968d: 48 05 01 00 00 00           	addq	$1, %rax
100009693: 48 89 45 d0                 	movq	%rax, -48(%rbp)
100009697: e9 17 00 00 00              	jmp	23 <_ft_strnstr+0xc3>
10000969c: 48 8b 45 d0                 	movq	-48(%rbp), %rax
1000096a0: 48 8b 4d d8                 	movq	-40(%rbp), %rcx
1000096a4: 48 29 c1                    	subq	%rax, %rcx
1000096a7: 48 89 4d d8                 	movq	%rcx, -40(%rbp)
1000096ab: 48 c7 45 d0 00 00 00 00     	movq	$0, -48(%rbp)
1000096b3: 48 8b 45 e8                 	movq	-24(%rbp), %rax
1000096b7: 48 8b 4d d0                 	movq	-48(%rbp), %rcx
1000096bb: 80 3c 08 00                 	cmpb	$0, (%rax,%rcx)
1000096bf: 0f 85 23 00 00 00           	jne	35 <_ft_strnstr+0xf8>
1000096c5: 31 c0                       	xorl	%eax, %eax
1000096c7: 89 c1                       	movl	%eax, %ecx
1000096c9: 48 8b 55 f0                 	movq	-16(%rbp), %rdx
1000096cd: 48 03 55 d8                 	addq	-40(%rbp), %rdx
1000096d1: 48 2b 4d d0                 	subq	-48(%rbp), %rcx
1000096d5: 48 01 ca                    	addq	%rcx, %rdx
1000096d8: 48 81 c2 01 00 00 00        	addq	$1, %rdx
1000096df: 48 89 55 f8                 	movq	%rdx, -8(%rbp)
1000096e3: e9 1b 00 00 00              	jmp	27 <_ft_strnstr+0x113>
1000096e8: 48 8b 45 d8                 	movq	-40(%rbp), %rax
1000096ec: 48 05 01 00 00 00           	addq	$1, %rax
1000096f2: 48 89 45 d8                 	movq	%rax, -40(%rbp)
1000096f6: e9 34 ff ff ff              	jmp	-204 <_ft_strnstr+0x3f>
1000096fb: 48 c7 45 f8 00 00 00 00     	movq	$0, -8(%rbp)
100009703: 48 8b 45 f8                 	movq	-8(%rbp), %rax
100009707: 5d                          	popq	%rbp
100009708: c3                          	retq
100009709: 90                          	nop
10000970a: 90                          	nop
10000970b: 90                          	nop
10000970c: 90                          	nop
10000970d: 90                          	nop
10000970e: 90                          	nop
10000970f: 90                          	nop

0000000100009710 _ft_strjoin:
100009710: 55                          	pushq	%rbp
100009711: 48 89 e5                    	movq	%rsp, %rbp
100009714: 48 83 ec 70                 	subq	$112, %rsp
100009718: 48 89 7d f0                 	movq	%rdi, -16(%rbp)
10000971c: 48 89 75 e8                 	movq	%rsi, -24(%rbp)
100009720: 48 83 7d f0 00              	cmpq	$0, -16(%rbp)
100009725: 0f 84 0b 00 00 00           	je	11 <_ft_strjoin+0x26>
10000972b: 48 83 7d e8 00              	cmpq	$0, -24(%rbp)
100009730: 0f 85 0d 00 00 00           	jne	13 <_ft_strjoin+0x33>
100009736: 48 c7 45 f8 00 00 00 00     	movq	$0, -8(%rbp)
10000973e: e9 f2 00 00 00              	jmp	242 <_ft_strjoin+0x125>
100009743: 48 8b 7d f0                 	movq	-16(%rbp), %rdi
100009747: e8 c4 fc ff ff              	callq	-828 <_ft_strlen>
10000974c: 48 8b 7d e8                 	movq	-24(%rbp), %rdi
100009750: 48 89 45 d0                 	movq	%rax, -48(%rbp)
100009754: e8 b7 fc ff ff              	callq	-841 <_ft_strlen>
100009759: 48 8b 4d d0                 	movq	-48(%rbp), %rcx
10000975d: 48 01 c1                    	addq	%rax, %rcx
100009760: 89 4d e4                    	movl	%ecx, -28(%rbp)
100009763: 8b 4d e4                    	movl	-28(%rbp), %ecx
100009766: 83 c1 01                    	addl	$1, %ecx
100009769: 48 63 c1                    	movslq	%ecx, %rax
10000976c: 48 c1 e0 00                 	shlq	$0, %rax
100009770: 48 89 c7                    	movq	%rax, %rdi
100009773: e8 46 11 00 00              	callq	4422 <dyld_stub_binder+0x10000a8be>
100009778: 48 89 45 d8                 	movq	%rax, -40(%rbp)
10000977c: 48 83 7d d8 00              	cmpq	$0, -40(%rbp)
100009781: 0f 85 0d 00 00 00           	jne	13 <_ft_strjoin+0x84>
100009787: 48 c7 45 f8 00 00 00 00     	movq	$0, -8(%rbp)
10000978f: e9 a1 00 00 00              	jmp	161 <_ft_strjoin+0x125>
100009794: 48 8b 7d d8                 	movq	-40(%rbp), %rdi
100009798: 48 8b 75 f0                 	movq	-16(%rbp), %rsi
10000979c: 48 8b 45 f0                 	movq	-16(%rbp), %rax
1000097a0: 48 89 7d c8                 	movq	%rdi, -56(%rbp)
1000097a4: 48 89 c7                    	movq	%rax, %rdi
1000097a7: 48 89 75 c0                 	movq	%rsi, -64(%rbp)
1000097ab: e8 60 fc ff ff              	callq	-928 <_ft_strlen>
1000097b0: 48 8b 7d c8                 	movq	-56(%rbp), %rdi
1000097b4: 48 8b 75 c0                 	movq	-64(%rbp), %rsi
1000097b8: 48 89 c2                    	movq	%rax, %rdx
1000097bb: e8 c0 fb ff ff              	callq	-1088 <_ft_memcpy>
1000097c0: 48 8b 4d d8                 	movq	-40(%rbp), %rcx
1000097c4: 48 8b 7d f0                 	movq	-16(%rbp), %rdi
1000097c8: 48 89 45 b8                 	movq	%rax, -72(%rbp)
1000097cc: 48 89 4d b0                 	movq	%rcx, -80(%rbp)
1000097d0: e8 3b fc ff ff              	callq	-965 <_ft_strlen>
1000097d5: 48 8b 4d b0                 	movq	-80(%rbp), %rcx
1000097d9: 48 01 c1                    	addq	%rax, %rcx
1000097dc: 48 8b 75 e8                 	movq	-24(%rbp), %rsi
1000097e0: 48 8b 7d e8                 	movq	-24(%rbp), %rdi
1000097e4: 48 89 4d a8                 	movq	%rcx, -88(%rbp)
1000097e8: 48 89 75 a0                 	movq	%rsi, -96(%rbp)
1000097ec: e8 1f fc ff ff              	callq	-993 <_ft_strlen>
1000097f1: 48 8b 7d a8                 	movq	-88(%rbp), %rdi
1000097f5: 48 8b 75 a0                 	movq	-96(%rbp), %rsi
1000097f9: 48 89 c2                    	movq	%rax, %rdx
1000097fc: e8 7f fb ff ff              	callq	-1153 <_ft_memcpy>
100009801: 48 8b 4d d8                 	movq	-40(%rbp), %rcx
100009805: 48 63 55 e4                 	movslq	-28(%rbp), %rdx
100009809: c6 04 11 00                 	movb	$0, (%rcx,%rdx)
10000980d: 48 8b 7d f0                 	movq	-16(%rbp), %rdi
100009811: 48 89 45 98                 	movq	%rax, -104(%rbp)
100009815: e8 f6 fb ff ff              	callq	-1034 <_ft_strlen>
10000981a: 48 83 f8 00                 	cmpq	$0, %rax
10000981e: 0f 84 09 00 00 00           	je	9 <_ft_strjoin+0x11d>
100009824: 48 8b 7d f0                 	movq	-16(%rbp), %rdi
100009828: e8 8f 0f 00 00              	callq	3983 <dyld_stub_binder+0x10000a7bc>
10000982d: 48 8b 45 d8                 	movq	-40(%rbp), %rax
100009831: 48 89 45 f8                 	movq	%rax, -8(%rbp)
100009835: 48 8b 45 f8                 	movq	-8(%rbp), %rax
100009839: 48 83 c4 70                 	addq	$112, %rsp
10000983d: 5d                          	popq	%rbp
10000983e: c3                          	retq
10000983f: 90                          	nop

0000000100009840 _ft_putstr_fd:
100009840: 55                          	pushq	%rbp
100009841: 48 89 e5                    	movq	%rsp, %rbp
100009844: 48 83 ec 20                 	subq	$32, %rsp
100009848: 48 89 7d f8                 	movq	%rdi, -8(%rbp)
10000984c: 89 75 f4                    	movl	%esi, -12(%rbp)
10000984f: 48 83 7d f8 00              	cmpq	$0, -8(%rbp)
100009854: 0f 85 05 00 00 00           	jne	5 <_ft_putstr_fd+0x1f>
10000985a: e9 29 00 00 00              	jmp	41 <_ft_putstr_fd+0x48>
10000985f: 8b 7d f4                    	movl	-12(%rbp), %edi
100009862: 48 8b 75 f8                 	movq	-8(%rbp), %rsi
100009866: 48 8b 45 f8                 	movq	-8(%rbp), %rax
10000986a: 89 7d f0                    	movl	%edi, -16(%rbp)
10000986d: 48 89 c7                    	movq	%rax, %rdi
100009870: 48 89 75 e8                 	movq	%rsi, -24(%rbp)
100009874: e8 97 fb ff ff              	callq	-1129 <_ft_strlen>
100009879: 8b 7d f0                    	movl	-16(%rbp), %edi
10000987c: 48 8b 75 e8                 	movq	-24(%rbp), %rsi
100009880: 48 89 c2                    	movq	%rax, %rdx
100009883: e8 9c 10 00 00              	callq	4252 <dyld_stub_binder+0x10000a924>
100009888: 48 83 c4 20                 	addq	$32, %rsp
10000988c: 5d                          	popq	%rbp
10000988d: c3                          	retq
10000988e: 90                          	nop
10000988f: 90                          	nop

0000000100009890 _free_stbuff:
100009890: 55                          	pushq	%rbp
100009891: 48 89 e5                    	movq	%rsp, %rbp
100009894: 48 83 ec 10                 	subq	$16, %rsp
100009898: 48 89 7d f8                 	movq	%rdi, -8(%rbp)
10000989c: 48 83 7d f8 00              	cmpq	$0, -8(%rbp)
1000098a1: 0f 84 09 00 00 00           	je	9 <_free_stbuff+0x20>
1000098a7: 48 8b 7d f8                 	movq	-8(%rbp), %rdi
1000098ab: e8 0c 0f 00 00              	callq	3852 <dyld_stub_binder+0x10000a7bc>
1000098b0: 31 c0                       	xorl	%eax, %eax
1000098b2: 48 83 c4 10                 	addq	$16, %rsp
1000098b6: 5d                          	popq	%rbp
1000098b7: c3                          	retq
1000098b8: 0f 1f 84 00 00 00 00 00     	nopl	(%rax,%rax)

00000001000098c0 _change_buf:
1000098c0: 55                          	pushq	%rbp
1000098c1: 48 89 e5                    	movq	%rsp, %rbp
1000098c4: 48 89 7d f8                 	movq	%rdi, -8(%rbp)
1000098c8: 48 89 75 f0                 	movq	%rsi, -16(%rbp)
1000098cc: c7 45 ec 00 00 00 00        	movl	$0, -20(%rbp)
1000098d3: 48 8b 45 f0                 	movq	-16(%rbp), %rax
1000098d7: 48 63 4d ec                 	movslq	-20(%rbp), %rcx
1000098db: 0f be 14 08                 	movsbl	(%rax,%rcx), %edx
1000098df: 83 fa 00                    	cmpl	$0, %edx
1000098e2: 0f 84 24 00 00 00           	je	36 <_change_buf+0x4c>
1000098e8: 48 8b 45 f0                 	movq	-16(%rbp), %rax
1000098ec: 48 63 4d ec                 	movslq	-20(%rbp), %rcx
1000098f0: 8a 14 08                    	movb	(%rax,%rcx), %dl
1000098f3: 48 8b 45 f8                 	movq	-8(%rbp), %rax
1000098f7: 48 63 4d ec                 	movslq	-20(%rbp), %rcx
1000098fb: 88 14 08                    	movb	%dl, (%rax,%rcx)
1000098fe: 8b 75 ec                    	movl	-20(%rbp), %esi
100009901: 83 c6 01                    	addl	$1, %esi
100009904: 89 75 ec                    	movl	%esi, -20(%rbp)
100009907: e9 c7 ff ff ff              	jmp	-57 <_change_buf+0x13>
10000990c: e9 00 00 00 00              	jmp	0 <_change_buf+0x51>
100009911: 83 7d ec 01                 	cmpl	$1, -20(%rbp)
100009915: 0f 8f 1a 00 00 00           	jg	26 <_change_buf+0x75>
10000991b: 48 8b 45 f8                 	movq	-8(%rbp), %rax
10000991f: 48 63 4d ec                 	movslq	-20(%rbp), %rcx
100009923: c6 04 08 00                 	movb	$0, (%rax,%rcx)
100009927: 8b 55 ec                    	movl	-20(%rbp), %edx
10000992a: 83 c2 01                    	addl	$1, %edx
10000992d: 89 55 ec                    	movl	%edx, -20(%rbp)
100009930: e9 dc ff ff ff              	jmp	-36 <_change_buf+0x51>
100009935: 5d                          	popq	%rbp
100009936: c3                          	retq
100009937: 66 0f 1f 84 00 00 00 00 00  	nopw	(%rax,%rax)

0000000100009940 _check_stbuff:
100009940: 55                          	pushq	%rbp
100009941: 48 89 e5                    	movq	%rsp, %rbp
100009944: 48 83 ec 20                 	subq	$32, %rsp
100009948: 48 89 7d f8                 	movq	%rdi, -8(%rbp)
10000994c: 48 89 75 f0                 	movq	%rsi, -16(%rbp)
100009950: 48 83 7d f8 00              	cmpq	$0, -8(%rbp)
100009955: 0f 84 8b 00 00 00           	je	139 <_check_stbuff+0xa6>
10000995b: 48 8b 7d f8                 	movq	-8(%rbp), %rdi
10000995f: be 0a 00 00 00              	movl	$10, %esi
100009964: e8 e7 fa ff ff              	callq	-1305 <_ft_strchr>
100009969: 48 89 45 e0                 	movq	%rax, -32(%rbp)
10000996d: 48 83 7d e0 00              	cmpq	$0, -32(%rbp)
100009972: 0f 84 58 00 00 00           	je	88 <_check_stbuff+0x90>
100009978: 31 f6                       	xorl	%esi, %esi
10000997a: 48 8b 7d f8                 	movq	-8(%rbp), %rdi
10000997e: 48 8b 45 e0                 	movq	-32(%rbp), %rax
100009982: 48 8b 4d f8                 	movq	-8(%rbp), %rcx
100009986: 48 29 c8                    	subq	%rcx, %rax
100009989: 48 05 01 00 00 00           	addq	$1, %rax
10000998f: 48 89 c2                    	movq	%rax, %rdx
100009992: e8 79 03 00 00              	callq	889 <_ft_substr>
100009997: 48 89 45 e8                 	movq	%rax, -24(%rbp)
10000999b: 48 8b 7d f0                 	movq	-16(%rbp), %rdi
10000999f: 48 8b 75 e8                 	movq	-24(%rbp), %rsi
1000099a3: e8 38 02 00 00              	callq	568 <_ft_strjoin_f>
1000099a8: 48 89 45 f0                 	movq	%rax, -16(%rbp)
1000099ac: 48 8b 7d e8                 	movq	-24(%rbp), %rdi
1000099b0: e8 07 0e 00 00              	callq	3591 <dyld_stub_binder+0x10000a7bc>
1000099b5: 48 8b 7d f8                 	movq	-8(%rbp), %rdi
1000099b9: 48 8b 45 e0                 	movq	-32(%rbp), %rax
1000099bd: 48 05 01 00 00 00           	addq	$1, %rax
1000099c3: 48 89 c6                    	movq	%rax, %rsi
1000099c6: e8 f5 fe ff ff              	callq	-267 <_change_buf>
1000099cb: e9 11 00 00 00              	jmp	17 <_check_stbuff+0xa1>
1000099d0: 48 8b 7d f0                 	movq	-16(%rbp), %rdi
1000099d4: 48 8b 75 f8                 	movq	-8(%rbp), %rsi
1000099d8: e8 03 02 00 00              	callq	515 <_ft_strjoin_f>
1000099dd: 48 89 45 f0                 	movq	%rax, -16(%rbp)
1000099e1: e9 00 00 00 00              	jmp	0 <_check_stbuff+0xa6>
1000099e6: 48 8b 45 f0                 	movq	-16(%rbp), %rax
1000099ea: 48 83 c4 20                 	addq	$32, %rsp
1000099ee: 5d                          	popq	%rbp
1000099ef: c3                          	retq

00000001000099f0 _initial:
1000099f0: 55                          	pushq	%rbp
1000099f1: 48 89 e5                    	movq	%rsp, %rbp
1000099f4: 48 83 ec 10                 	subq	$16, %rsp
1000099f8: 48 89 7d f8                 	movq	%rdi, -8(%rbp)
1000099fc: bf 01 00 00 00              	movl	$1, %edi
100009a01: e8 b8 0e 00 00              	callq	3768 <dyld_stub_binder+0x10000a8be>
100009a06: 48 89 45 f0                 	movq	%rax, -16(%rbp)
100009a0a: 48 8b 45 f0                 	movq	-16(%rbp), %rax
100009a0e: c6 00 00                    	movb	$0, (%rax)
100009a11: 48 8b 45 f8                 	movq	-8(%rbp), %rax
100009a15: 48 83 38 00                 	cmpq	$0, (%rax)
100009a19: 0f 85 2e 00 00 00           	jne	46 <_initial+0x5d>
100009a1f: bf 02 00 00 00              	movl	$2, %edi
100009a24: e8 95 0e 00 00              	callq	3733 <dyld_stub_binder+0x10000a8be>
100009a29: 48 8b 4d f8                 	movq	-8(%rbp), %rcx
100009a2d: 48 89 01                    	movq	%rax, (%rcx)
100009a30: 48 8b 45 f8                 	movq	-8(%rbp), %rax
100009a34: 48 83 38 00                 	cmpq	$0, (%rax)
100009a38: 0f 84 0a 00 00 00           	je	10 <_initial+0x58>
100009a3e: 48 8b 45 f8                 	movq	-8(%rbp), %rax
100009a42: 48 8b 00                    	movq	(%rax), %rax
100009a45: c6 00 00                    	movb	$0, (%rax)
100009a48: e9 00 00 00 00              	jmp	0 <_initial+0x5d>
100009a4d: 48 8b 45 f0                 	movq	-16(%rbp), %rax
100009a51: 48 83 c4 10                 	addq	$16, %rsp
100009a55: 5d                          	popq	%rbp
100009a56: c3                          	retq
100009a57: 66 0f 1f 84 00 00 00 00 00  	nopw	(%rax,%rax)

0000000100009a60 _get_next_line:
100009a60: 55                          	pushq	%rbp
100009a61: 48 89 e5                    	movq	%rsp, %rbp
100009a64: 48 83 ec 20                 	subq	$32, %rsp
100009a68: 89 7d f4                    	movl	%edi, -12(%rbp)
100009a6b: c7 45 e4 01 00 00 00        	movl	$1, -28(%rbp)
100009a72: 83 7d f4 00                 	cmpl	$0, -12(%rbp)
100009a76: 0f 8c 1c 00 00 00           	jl	28 <_get_next_line+0x38>
100009a7c: 31 c0                       	xorl	%eax, %eax
100009a7e: 89 c1                       	movl	%eax, %ecx
100009a80: 8b 7d f4                    	movl	-12(%rbp), %edi
100009a83: 48 89 ce                    	movq	%rcx, %rsi
100009a86: 48 89 ca                    	movq	%rcx, %rdx
100009a89: e8 60 0e 00 00              	callq	3680 <dyld_stub_binder+0x10000a8ee>
100009a8e: 48 83 f8 00                 	cmpq	$0, %rax
100009a92: 0f 8d 0d 00 00 00           	jge	13 <_get_next_line+0x45>
100009a98: 48 c7 45 f8 00 00 00 00     	movq	$0, -8(%rbp)
100009aa0: e9 26 01 00 00              	jmp	294 <_get_next_line+0x16b>
100009aa5: 48 63 45 f4                 	movslq	-12(%rbp), %rax
100009aa9: 48 c1 e0 03                 	shlq	$3, %rax
100009aad: 48 8d 0d cc 20 02 00        	leaq	139468(%rip), %rcx
100009ab4: 48 01 c1                    	addq	%rax, %rcx
100009ab7: 48 89 cf                    	movq	%rcx, %rdi
100009aba: e8 31 ff ff ff              	callq	-207 <_initial>
100009abf: 48 89 45 e8                 	movq	%rax, -24(%rbp)
100009ac3: 48 63 45 f4                 	movslq	-12(%rbp), %rax
100009ac7: 48 8d 0d b2 20 02 00        	leaq	139442(%rip), %rcx
100009ace: 48 8b 3c c1                 	movq	(%rcx,%rax,8), %rdi
100009ad2: 48 8b 75 e8                 	movq	-24(%rbp), %rsi
100009ad6: e8 65 fe ff ff              	callq	-411 <_check_stbuff>
100009adb: 48 89 45 e8                 	movq	%rax, -24(%rbp)
100009adf: 48 63 45 f4                 	movslq	-12(%rbp), %rax
100009ae3: 48 8d 0d 96 20 02 00        	leaq	139414(%rip), %rcx
100009aea: 48 83 3c c1 00              	cmpq	$0, (%rcx,%rax,8)
100009aef: 0f 84 22 00 00 00           	je	34 <_get_next_line+0xb7>
100009af5: 48 8b 7d e8                 	movq	-24(%rbp), %rdi
100009af9: be 0a 00 00 00              	movl	$10, %esi
100009afe: e8 4d f9 ff ff              	callq	-1715 <_ft_strchr>
100009b03: 48 83 f8 00                 	cmpq	$0, %rax
100009b07: 0f 85 0a 00 00 00           	jne	10 <_get_next_line+0xb7>
100009b0d: 83 7d e4 00                 	cmpl	$0, -28(%rbp)
100009b11: 0f 85 05 00 00 00           	jne	5 <_get_next_line+0xbc>
100009b17: e9 52 00 00 00              	jmp	82 <_get_next_line+0x10e>
100009b1c: 8b 7d f4                    	movl	-12(%rbp), %edi
100009b1f: 48 63 45 f4                 	movslq	-12(%rbp), %rax
100009b23: 48 8d 0d 56 20 02 00        	leaq	139350(%rip), %rcx
100009b2a: 48 8b 34 c1                 	movq	(%rcx,%rax,8), %rsi
100009b2e: ba 01 00 00 00              	movl	$1, %edx
100009b33: e8 b6 0d 00 00              	callq	3510 <dyld_stub_binder+0x10000a8ee>
100009b38: 89 45 e4                    	movl	%eax, -28(%rbp)
100009b3b: 83 7d e4 00                 	cmpl	$0, -28(%rbp)
100009b3f: 0f 8d 0d 00 00 00           	jge	13 <_get_next_line+0xf2>
100009b45: 48 c7 45 f8 00 00 00 00     	movq	$0, -8(%rbp)
100009b4d: e9 79 00 00 00              	jmp	121 <_get_next_line+0x16b>
100009b52: 48 63 45 f4                 	movslq	-12(%rbp), %rax
100009b56: 48 8d 0d 23 20 02 00        	leaq	139299(%rip), %rcx
100009b5d: 48 8b 04 c1                 	movq	(%rcx,%rax,8), %rax
100009b61: 48 63 4d e4                 	movslq	-28(%rbp), %rcx
100009b65: c6 04 08 00                 	movb	$0, (%rax,%rcx)
100009b69: e9 55 ff ff ff              	jmp	-171 <_get_next_line+0x63>
100009b6e: 48 8b 45 e8                 	movq	-24(%rbp), %rax
100009b72: 0f be 08                    	movsbl	(%rax), %ecx
100009b75: 83 f9 00                    	cmpl	$0, %ecx
100009b78: 0f 85 0d 00 00 00           	jne	13 <_get_next_line+0x12b>
100009b7e: 48 8b 7d e8                 	movq	-24(%rbp), %rdi
100009b82: e8 09 fd ff ff              	callq	-759 <_free_stbuff>
100009b87: 48 89 45 e8                 	movq	%rax, -24(%rbp)
100009b8b: 48 83 7d e8 00              	cmpq	$0, -24(%rbp)
100009b90: 0f 84 0a 00 00 00           	je	10 <_get_next_line+0x140>
100009b96: 83 7d e4 00                 	cmpl	$0, -28(%rbp)
100009b9a: 0f 85 23 00 00 00           	jne	35 <_get_next_line+0x163>
100009ba0: 48 63 45 f4                 	movslq	-12(%rbp), %rax
100009ba4: 48 8d 0d d5 1f 02 00        	leaq	139221(%rip), %rcx
100009bab: 48 8b 3c c1                 	movq	(%rcx,%rax,8), %rdi
100009baf: e8 dc fc ff ff              	callq	-804 <_free_stbuff>
100009bb4: 48 63 4d f4                 	movslq	-12(%rbp), %rcx
100009bb8: 48 8d 15 c1 1f 02 00        	leaq	139201(%rip), %rdx
100009bbf: 48 89 04 ca                 	movq	%rax, (%rdx,%rcx,8)
100009bc3: 48 8b 45 e8                 	movq	-24(%rbp), %rax
100009bc7: 48 89 45 f8                 	movq	%rax, -8(%rbp)
100009bcb: 48 8b 45 f8                 	movq	-8(%rbp), %rax
100009bcf: 48 83 c4 20                 	addq	$32, %rsp
100009bd3: 5d                          	popq	%rbp
100009bd4: c3                          	retq
100009bd5: 90                          	nop
100009bd6: 90                          	nop
100009bd7: 90                          	nop
100009bd8: 90                          	nop
100009bd9: 90                          	nop
100009bda: 90                          	nop
100009bdb: 90                          	nop
100009bdc: 90                          	nop
100009bdd: 90                          	nop
100009bde: 90                          	nop
100009bdf: 90                          	nop

0000000100009be0 _ft_strjoin_f:
100009be0: 55                          	pushq	%rbp
100009be1: 48 89 e5                    	movq	%rsp, %rbp
100009be4: 48 83 ec 60                 	subq	$96, %rsp
100009be8: 48 89 7d f0                 	movq	%rdi, -16(%rbp)
100009bec: 48 89 75 e8                 	movq	%rsi, -24(%rbp)
100009bf0: 48 83 7d f0 00              	cmpq	$0, -16(%rbp)
100009bf5: 0f 84 0b 00 00 00           	je	11 <_ft_strjoin_f+0x26>
100009bfb: 48 83 7d e8 00              	cmpq	$0, -24(%rbp)
100009c00: 0f 85 0d 00 00 00           	jne	13 <_ft_strjoin_f+0x33>
100009c06: 48 c7 45 f8 00 00 00 00     	movq	$0, -8(%rbp)
100009c0e: e9 ee 00 00 00              	jmp	238 <_ft_strjoin_f+0x121>
100009c13: 48 8b 7d f0                 	movq	-16(%rbp), %rdi
100009c17: e8 f4 f7 ff ff              	callq	-2060 <_ft_strlen>
100009c1c: 48 8b 7d e8                 	movq	-24(%rbp), %rdi
100009c20: 48 89 45 d0                 	movq	%rax, -48(%rbp)
100009c24: e8 e7 f7 ff ff              	callq	-2073 <_ft_strlen>
100009c29: 48 8b 4d d0                 	movq	-48(%rbp), %rcx
100009c2d: 48 01 c1                    	addq	%rax, %rcx
100009c30: 89 4d e4                    	movl	%ecx, -28(%rbp)
100009c33: 8b 4d e4                    	movl	-28(%rbp), %ecx
100009c36: 83 c1 01                    	addl	$1, %ecx
100009c39: 48 63 c1                    	movslq	%ecx, %rax
100009c3c: 48 c1 e0 00                 	shlq	$0, %rax
100009c40: 48 89 c7                    	movq	%rax, %rdi
100009c43: e8 76 0c 00 00              	callq	3190 <dyld_stub_binder+0x10000a8be>
100009c48: 48 89 45 d8                 	movq	%rax, -40(%rbp)
100009c4c: 48 83 7d d8 00              	cmpq	$0, -40(%rbp)
100009c51: 0f 85 0d 00 00 00           	jne	13 <_ft_strjoin_f+0x84>
100009c57: 48 c7 45 f8 00 00 00 00     	movq	$0, -8(%rbp)
100009c5f: e9 9d 00 00 00              	jmp	157 <_ft_strjoin_f+0x121>
100009c64: 48 8b 7d d8                 	movq	-40(%rbp), %rdi
100009c68: 48 8b 75 f0                 	movq	-16(%rbp), %rsi
100009c6c: 48 8b 45 f0                 	movq	-16(%rbp), %rax
100009c70: 48 89 7d c8                 	movq	%rdi, -56(%rbp)
100009c74: 48 89 c7                    	movq	%rax, %rdi
100009c77: 48 89 75 c0                 	movq	%rsi, -64(%rbp)
100009c7b: e8 90 f7 ff ff              	callq	-2160 <_ft_strlen>
100009c80: 48 8b 7d c8                 	movq	-56(%rbp), %rdi
100009c84: 48 8b 75 c0                 	movq	-64(%rbp), %rsi
100009c88: 48 89 c2                    	movq	%rax, %rdx
100009c8b: e8 f0 f6 ff ff              	callq	-2320 <_ft_memcpy>
100009c90: 48 8b 4d d8                 	movq	-40(%rbp), %rcx
100009c94: 48 8b 7d f0                 	movq	-16(%rbp), %rdi
100009c98: 48 89 45 b8                 	movq	%rax, -72(%rbp)
100009c9c: 48 89 4d b0                 	movq	%rcx, -80(%rbp)
100009ca0: e8 6b f7 ff ff              	callq	-2197 <_ft_strlen>
100009ca5: 48 8b 4d b0                 	movq	-80(%rbp), %rcx
100009ca9: 48 01 c1                    	addq	%rax, %rcx
100009cac: 48 8b 75 e8                 	movq	-24(%rbp), %rsi
100009cb0: 48 8b 7d e8                 	movq	-24(%rbp), %rdi
100009cb4: 48 89 4d a8                 	movq	%rcx, -88(%rbp)
100009cb8: 48 89 75 a0                 	movq	%rsi, -96(%rbp)
100009cbc: e8 4f f7 ff ff              	callq	-2225 <_ft_strlen>
100009cc1: 48 8b 7d a8                 	movq	-88(%rbp), %rdi
100009cc5: 48 8b 75 a0                 	movq	-96(%rbp), %rsi
100009cc9: 48 89 c2                    	movq	%rax, %rdx
100009ccc: e8 af f6 ff ff              	callq	-2385 <_ft_memcpy>
100009cd1: 48 8b 4d d8                 	movq	-40(%rbp), %rcx
100009cd5: 48 63 55 e4                 	movslq	-28(%rbp), %rdx
100009cd9: c6 04 11 00                 	movb	$0, (%rcx,%rdx)
100009cdd: 48 83 7d f0 00              	cmpq	$0, -16(%rbp)
100009ce2: 0f 84 11 00 00 00           	je	17 <_ft_strjoin_f+0x119>
100009ce8: 48 8b 7d f0                 	movq	-16(%rbp), %rdi
100009cec: e8 cb 0a 00 00              	callq	2763 <dyld_stub_binder+0x10000a7bc>
100009cf1: 48 c7 45 f0 00 00 00 00     	movq	$0, -16(%rbp)
100009cf9: 48 8b 45 d8                 	movq	-40(%rbp), %rax
100009cfd: 48 89 45 f8                 	movq	%rax, -8(%rbp)
100009d01: 48 8b 45 f8                 	movq	-8(%rbp), %rax
100009d05: 48 83 c4 60                 	addq	$96, %rsp
100009d09: 5d                          	popq	%rbp
100009d0a: c3                          	retq
100009d0b: 0f 1f 44 00 00              	nopl	(%rax,%rax)

0000000100009d10 _ft_substr:
100009d10: 55                          	pushq	%rbp
100009d11: 48 89 e5                    	movq	%rsp, %rbp
100009d14: 48 83 ec 40                 	subq	$64, %rsp
100009d18: 48 89 7d f0                 	movq	%rdi, -16(%rbp)
100009d1c: 89 75 ec                    	movl	%esi, -20(%rbp)
100009d1f: 48 89 55 e0                 	movq	%rdx, -32(%rbp)
100009d23: 48 83 7d f0 00              	cmpq	$0, -16(%rbp)
100009d28: 0f 85 0d 00 00 00           	jne	13 <_ft_substr+0x2b>
100009d2e: 48 c7 45 f8 00 00 00 00     	movq	$0, -8(%rbp)
100009d36: e9 f2 00 00 00              	jmp	242 <_ft_substr+0x11d>
100009d3b: 48 8b 45 e0                 	movq	-32(%rbp), %rax
100009d3f: 48 89 45 d0                 	movq	%rax, -48(%rbp)
100009d43: 8b 4d ec                    	movl	-20(%rbp), %ecx
100009d46: 89 c8                       	movl	%ecx, %eax
100009d48: 48 8b 7d f0                 	movq	-16(%rbp), %rdi
100009d4c: 48 89 45 c8                 	movq	%rax, -56(%rbp)
100009d50: e8 bb f6 ff ff              	callq	-2373 <_ft_strlen>
100009d55: 48 8b 55 c8                 	movq	-56(%rbp), %rdx
100009d59: 48 39 c2                    	cmpq	%rax, %rdx
100009d5c: 0f 86 0d 00 00 00           	jbe	13 <_ft_substr+0x5f>
100009d62: 48 c7 45 d0 00 00 00 00     	movq	$0, -48(%rbp)
100009d6a: e9 35 00 00 00              	jmp	53 <_ft_substr+0x94>
100009d6f: 48 8b 7d f0                 	movq	-16(%rbp), %rdi
100009d73: e8 98 f6 ff ff              	callq	-2408 <_ft_strlen>
100009d78: 8b 4d ec                    	movl	-20(%rbp), %ecx
100009d7b: 89 ca                       	movl	%ecx, %edx
100009d7d: 48 29 d0                    	subq	%rdx, %rax
100009d80: 48 3b 45 e0                 	cmpq	-32(%rbp), %rax
100009d84: 0f 83 15 00 00 00           	jae	21 <_ft_substr+0x8f>
100009d8a: 48 8b 7d f0                 	movq	-16(%rbp), %rdi
100009d8e: e8 7d f6 ff ff              	callq	-2435 <_ft_strlen>
100009d93: 8b 4d ec                    	movl	-20(%rbp), %ecx
100009d96: 89 ca                       	movl	%ecx, %edx
100009d98: 48 29 d0                    	subq	%rdx, %rax
100009d9b: 48 89 45 d0                 	movq	%rax, -48(%rbp)
100009d9f: e9 00 00 00 00              	jmp	0 <_ft_substr+0x94>
100009da4: 48 8b 45 d0                 	movq	-48(%rbp), %rax
100009da8: 48 05 01 00 00 00           	addq	$1, %rax
100009dae: 48 c1 e0 00                 	shlq	$0, %rax
100009db2: 48 89 c7                    	movq	%rax, %rdi
100009db5: e8 04 0b 00 00              	callq	2820 <dyld_stub_binder+0x10000a8be>
100009dba: 48 89 45 d8                 	movq	%rax, -40(%rbp)
100009dbe: 48 83 7d d8 00              	cmpq	$0, -40(%rbp)
100009dc3: 0f 84 0b 00 00 00           	je	11 <_ft_substr+0xc4>
100009dc9: 48 83 7d d8 00              	cmpq	$0, -40(%rbp)
100009dce: 0f 85 0d 00 00 00           	jne	13 <_ft_substr+0xd1>
100009dd4: 48 c7 45 f8 00 00 00 00     	movq	$0, -8(%rbp)
100009ddc: e9 4c 00 00 00              	jmp	76 <_ft_substr+0x11d>
100009de1: 48 83 7d d8 00              	cmpq	$0, -40(%rbp)
100009de6: 0f 85 0d 00 00 00           	jne	13 <_ft_substr+0xe9>
100009dec: 48 c7 45 f8 00 00 00 00     	movq	$0, -8(%rbp)
100009df4: e9 34 00 00 00              	jmp	52 <_ft_substr+0x11d>
100009df9: 48 8b 7d d8                 	movq	-40(%rbp), %rdi
100009dfd: 48 8b 45 f0                 	movq	-16(%rbp), %rax
100009e01: 8b 4d ec                    	movl	-20(%rbp), %ecx
100009e04: 89 ca                       	movl	%ecx, %edx
100009e06: 48 01 d0                    	addq	%rdx, %rax
100009e09: 48 8b 55 d0                 	movq	-48(%rbp), %rdx
100009e0d: 48 89 c6                    	movq	%rax, %rsi
100009e10: e8 6b f5 ff ff              	callq	-2709 <_ft_memcpy>
100009e15: 48 89 45 d8                 	movq	%rax, -40(%rbp)
100009e19: 48 8b 45 d8                 	movq	-40(%rbp), %rax
100009e1d: 48 8b 55 d0                 	movq	-48(%rbp), %rdx
100009e21: c6 04 10 00                 	movb	$0, (%rax,%rdx)
100009e25: 48 8b 45 d8                 	movq	-40(%rbp), %rax
100009e29: 48 89 45 f8                 	movq	%rax, -8(%rbp)
100009e2d: 48 8b 45 f8                 	movq	-8(%rbp), %rax
100009e31: 48 83 c4 40                 	addq	$64, %rsp
100009e35: 5d                          	popq	%rbp
100009e36: c3                          	retq
100009e37: 90                          	nop
100009e38: 90                          	nop
100009e39: 90                          	nop
100009e3a: 90                          	nop
100009e3b: 90                          	nop
100009e3c: 90                          	nop
100009e3d: 90                          	nop
100009e3e: 90                          	nop
100009e3f: 90                          	nop

0000000100009e40 _ft_pfptr:
100009e40: 55                          	pushq	%rbp
100009e41: 48 89 e5                    	movq	%rsp, %rbp
100009e44: 48 83 ec 30                 	subq	$48, %rsp
100009e48: 48 89 7d f8                 	movq	%rdi, -8(%rbp)
100009e4c: 48 89 75 f0                 	movq	%rsi, -16(%rbp)
100009e50: 48 89 55 e8                 	movq	%rdx, -24(%rbp)
100009e54: 48 89 4d e0                 	movq	%rcx, -32(%rbp)
100009e58: 48 8b 45 f8                 	movq	-8(%rbp), %rax
100009e5c: 48 3b 45 f0                 	cmpq	-16(%rbp), %rax
100009e60: 0f 82 2b 00 00 00           	jb	43 <_ft_pfptr+0x51>
100009e66: 48 8b 45 f8                 	movq	-8(%rbp), %rax
100009e6a: 31 c9                       	xorl	%ecx, %ecx
100009e6c: 89 ca                       	movl	%ecx, %edx
100009e6e: 48 f7 75 f0                 	divq	-16(%rbp)
100009e72: 48 8b 75 f0                 	movq	-16(%rbp), %rsi
100009e76: 48 8b 7d e8                 	movq	-24(%rbp), %rdi
100009e7a: 48 8b 4d e0                 	movq	-32(%rbp), %rcx
100009e7e: 48 89 7d d8                 	movq	%rdi, -40(%rbp)
100009e82: 48 89 c7                    	movq	%rax, %rdi
100009e85: 48 8b 45 d8                 	movq	-40(%rbp), %rax
100009e89: 48 89 c2                    	movq	%rax, %rdx
100009e8c: e8 af ff ff ff              	callq	-81 <_ft_pfptr>
100009e91: 48 8b 45 e8                 	movq	-24(%rbp), %rax
100009e95: 48 8b 4d f8                 	movq	-8(%rbp), %rcx
100009e99: 48 89 45 d0                 	movq	%rax, -48(%rbp)
100009e9d: 48 89 c8                    	movq	%rcx, %rax
100009ea0: 31 d2                       	xorl	%edx, %edx
100009ea2: 48 f7 75 f0                 	divq	-16(%rbp)
100009ea6: 48 8b 4d d0                 	movq	-48(%rbp), %rcx
100009eaa: 48 01 d1                    	addq	%rdx, %rcx
100009ead: bf 01 00 00 00              	movl	$1, %edi
100009eb2: 48 89 ce                    	movq	%rcx, %rsi
100009eb5: ba 01 00 00 00              	movl	$1, %edx
100009eba: e8 65 0a 00 00              	callq	2661 <dyld_stub_binder+0x10000a924>
100009ebf: 48 8b 4d e0                 	movq	-32(%rbp), %rcx
100009ec3: 48 63 11                    	movslq	(%rcx), %rdx
100009ec6: 48 01 c2                    	addq	%rax, %rdx
100009ec9: 89 11                       	movl	%edx, (%rcx)
100009ecb: 48 83 c4 30                 	addq	$48, %rsp
100009ecf: 5d                          	popq	%rbp
100009ed0: c3                          	retq
100009ed1: 90                          	nop
100009ed2: 90                          	nop
100009ed3: 90                          	nop
100009ed4: 90                          	nop
100009ed5: 90                          	nop
100009ed6: 90                          	nop
100009ed7: 90                          	nop
100009ed8: 90                          	nop
100009ed9: 90                          	nop
100009eda: 90                          	nop
100009edb: 90                          	nop
100009edc: 90                          	nop
100009edd: 90                          	nop
100009ede: 90                          	nop
100009edf: 90                          	nop

0000000100009ee0 _ft_pfputchar:
100009ee0: 55                          	pushq	%rbp
100009ee1: 48 89 e5                    	movq	%rsp, %rbp
100009ee4: 48 83 ec 10                 	subq	$16, %rsp
100009ee8: 40 88 7d ff                 	movb	%dil, -1(%rbp)
100009eec: bf 01 00 00 00              	movl	$1, %edi
100009ef1: 48 8d 75 ff                 	leaq	-1(%rbp), %rsi
100009ef5: ba 01 00 00 00              	movl	$1, %edx
100009efa: e8 25 0a 00 00              	callq	2597 <dyld_stub_binder+0x10000a924>
100009eff: 48 83 c4 10                 	addq	$16, %rsp
100009f03: 5d                          	popq	%rbp
100009f04: c3                          	retq
100009f05: 90                          	nop
100009f06: 90                          	nop
100009f07: 90                          	nop
100009f08: 90                          	nop
100009f09: 90                          	nop
100009f0a: 90                          	nop
100009f0b: 90                          	nop
100009f0c: 90                          	nop
100009f0d: 90                          	nop
100009f0e: 90                          	nop
100009f0f: 90                          	nop

0000000100009f10 _ft_pfputstr:
100009f10: 55                          	pushq	%rbp
100009f11: 48 89 e5                    	movq	%rsp, %rbp
100009f14: 48 83 ec 10                 	subq	$16, %rsp
100009f18: 48 89 7d f8                 	movq	%rdi, -8(%rbp)
100009f1c: 48 83 7d f8 00              	cmpq	$0, -8(%rbp)
100009f21: 0f 84 23 00 00 00           	je	35 <_ft_pfputstr+0x3a>
100009f27: 48 8b 7d f8                 	movq	-8(%rbp), %rdi
100009f2b: e8 00 08 00 00              	callq	2048 <_ft_pfstrlen>
100009f30: 89 45 f4                    	movl	%eax, -12(%rbp)
100009f33: 48 8b 75 f8                 	movq	-8(%rbp), %rsi
100009f37: 48 63 55 f4                 	movslq	-12(%rbp), %rdx
100009f3b: bf 01 00 00 00              	movl	$1, %edi
100009f40: e8 df 09 00 00              	callq	2527 <dyld_stub_binder+0x10000a924>
100009f45: e9 19 00 00 00              	jmp	25 <_ft_pfputstr+0x53>
100009f4a: bf 01 00 00 00              	movl	$1, %edi
100009f4f: 48 8d 35 5c 31 00 00        	leaq	12636(%rip), %rsi
100009f56: ba 06 00 00 00              	movl	$6, %edx
100009f5b: e8 c4 09 00 00              	callq	2500 <dyld_stub_binder+0x10000a924>
100009f60: 89 45 f4                    	movl	%eax, -12(%rbp)
100009f63: 8b 45 f4                    	movl	-12(%rbp), %eax
100009f66: 48 83 c4 10                 	addq	$16, %rsp
100009f6a: 5d                          	popq	%rbp
100009f6b: c3                          	retq
100009f6c: 90                          	nop
100009f6d: 90                          	nop
100009f6e: 90                          	nop
100009f6f: 90                          	nop

0000000100009f70 _check_percent:
100009f70: 55                          	pushq	%rbp
100009f71: 48 89 e5                    	movq	%rsp, %rbp
100009f74: 48 81 ec d0 00 00 00        	subq	$208, %rsp
100009f7b: 48 89 7d f0                 	movq	%rdi, -16(%rbp)
100009f7f: 48 89 75 e8                 	movq	%rsi, -24(%rbp)
100009f83: 48 89 55 e0                 	movq	%rdx, -32(%rbp)
100009f87: 89 4d dc                    	movl	%ecx, -36(%rbp)
100009f8a: 48 8b 45 f0                 	movq	-16(%rbp), %rax
100009f8e: 48 63 55 dc                 	movslq	-36(%rbp), %rdx
100009f92: 0f be 0c 10                 	movsbl	(%rax,%rdx), %ecx
100009f96: 83 f9 63                    	cmpl	$99, %ecx
100009f99: 0f 85 67 00 00 00           	jne	103 <_check_percent+0x96>
100009f9f: 48 8b 45 e8                 	movq	-24(%rbp), %rax
100009fa3: 8b 08                       	movl	(%rax), %ecx
100009fa5: 83 f9 28                    	cmpl	$40, %ecx
100009fa8: 48 89 45 d0                 	movq	%rax, -48(%rbp)
100009fac: 89 4d cc                    	movl	%ecx, -52(%rbp)
100009faf: 0f 87 1c 00 00 00           	ja	28 <_check_percent+0x61>
100009fb5: 8b 45 cc                    	movl	-52(%rbp), %eax
100009fb8: 48 63 c8                    	movslq	%eax, %rcx
100009fbb: 48 8b 55 d0                 	movq	-48(%rbp), %rdx
100009fbf: 48 03 4a 10                 	addq	16(%rdx), %rcx
100009fc3: 83 c0 08                    	addl	$8, %eax
100009fc6: 89 02                       	movl	%eax, (%rdx)
100009fc8: 48 89 4d c0                 	movq	%rcx, -64(%rbp)
100009fcc: e9 1a 00 00 00              	jmp	26 <_check_percent+0x7b>
100009fd1: 48 8b 45 d0                 	movq	-48(%rbp), %rax
100009fd5: 48 8b 48 08                 	movq	8(%rax), %rcx
100009fd9: 48 89 ca                    	movq	%rcx, %rdx
100009fdc: 48 81 c1 08 00 00 00        	addq	$8, %rcx
100009fe3: 48 89 48 08                 	movq	%rcx, 8(%rax)
100009fe7: 48 89 55 c0                 	movq	%rdx, -64(%rbp)
100009feb: 48 8b 45 c0                 	movq	-64(%rbp), %rax
100009fef: 8b 08                       	movl	(%rax), %ecx
100009ff1: 0f be f9                    	movsbl	%cl, %edi
100009ff4: e8 e7 fe ff ff              	callq	-281 <_ft_pfputchar>
100009ff9: 48 8b 55 e0                 	movq	-32(%rbp), %rdx
100009ffd: 03 02                       	addl	(%rdx), %eax
100009fff: 89 02                       	movl	%eax, (%rdx)
10000a001: e9 fa 03 00 00              	jmp	1018 <_check_percent+0x490>
10000a006: 48 8b 45 f0                 	movq	-16(%rbp), %rax
10000a00a: 48 63 4d dc                 	movslq	-36(%rbp), %rcx
10000a00e: 0f be 14 08                 	movsbl	(%rax,%rcx), %edx
10000a012: 83 fa 73                    	cmpl	$115, %edx
10000a015: 0f 85 65 00 00 00           	jne	101 <_check_percent+0x110>
10000a01b: 48 8b 45 e8                 	movq	-24(%rbp), %rax
10000a01f: 8b 08                       	movl	(%rax), %ecx
10000a021: 83 f9 28                    	cmpl	$40, %ecx
10000a024: 48 89 45 b8                 	movq	%rax, -72(%rbp)
10000a028: 89 4d b4                    	movl	%ecx, -76(%rbp)
10000a02b: 0f 87 1c 00 00 00           	ja	28 <_check_percent+0xdd>
10000a031: 8b 45 b4                    	movl	-76(%rbp), %eax
10000a034: 48 63 c8                    	movslq	%eax, %rcx
10000a037: 48 8b 55 b8                 	movq	-72(%rbp), %rdx
10000a03b: 48 03 4a 10                 	addq	16(%rdx), %rcx
10000a03f: 83 c0 08                    	addl	$8, %eax
10000a042: 89 02                       	movl	%eax, (%rdx)
10000a044: 48 89 4d a8                 	movq	%rcx, -88(%rbp)
10000a048: e9 1a 00 00 00              	jmp	26 <_check_percent+0xf7>
10000a04d: 48 8b 45 b8                 	movq	-72(%rbp), %rax
10000a051: 48 8b 48 08                 	movq	8(%rax), %rcx
10000a055: 48 89 ca                    	movq	%rcx, %rdx
10000a058: 48 81 c1 08 00 00 00        	addq	$8, %rcx
10000a05f: 48 89 48 08                 	movq	%rcx, 8(%rax)
10000a063: 48 89 55 a8                 	movq	%rdx, -88(%rbp)
10000a067: 48 8b 45 a8                 	movq	-88(%rbp), %rax
10000a06b: 48 8b 38                    	movq	(%rax), %rdi
10000a06e: e8 9d fe ff ff              	callq	-355 <_ft_pfputstr>
10000a073: 48 8b 4d e0                 	movq	-32(%rbp), %rcx
10000a077: 03 01                       	addl	(%rcx), %eax
10000a079: 89 01                       	movl	%eax, (%rcx)
10000a07b: e9 7b 03 00 00              	jmp	891 <_check_percent+0x48b>
10000a080: 48 8b 45 f0                 	movq	-16(%rbp), %rax
10000a084: 48 63 4d dc                 	movslq	-36(%rbp), %rcx
10000a088: 0f be 14 08                 	movsbl	(%rax,%rcx), %edx
10000a08c: 83 fa 70                    	cmpl	$112, %edx
10000a08f: 0f 85 8f 00 00 00           	jne	143 <_check_percent+0x1b4>
10000a095: bf 01 00 00 00              	movl	$1, %edi
10000a09a: 48 8d 35 18 30 00 00        	leaq	12312(%rip), %rsi
10000a0a1: ba 02 00 00 00              	movl	$2, %edx
10000a0a6: e8 79 08 00 00              	callq	2169 <dyld_stub_binder+0x10000a924>
10000a0ab: 48 8b 4d e0                 	movq	-32(%rbp), %rcx
10000a0af: 48 63 11                    	movslq	(%rcx), %rdx
10000a0b2: 48 01 c2                    	addq	%rax, %rdx
10000a0b5: 89 11                       	movl	%edx, (%rcx)
10000a0b7: 48 8b 45 e8                 	movq	-24(%rbp), %rax
10000a0bb: 8b 10                       	movl	(%rax), %edx
10000a0bd: 83 fa 28                    	cmpl	$40, %edx
10000a0c0: 48 89 45 a0                 	movq	%rax, -96(%rbp)
10000a0c4: 89 55 9c                    	movl	%edx, -100(%rbp)
10000a0c7: 0f 87 1c 00 00 00           	ja	28 <_check_percent+0x179>
10000a0cd: 8b 45 9c                    	movl	-100(%rbp), %eax
10000a0d0: 48 63 c8                    	movslq	%eax, %rcx
10000a0d3: 48 8b 55 a0                 	movq	-96(%rbp), %rdx
10000a0d7: 48 03 4a 10                 	addq	16(%rdx), %rcx
10000a0db: 83 c0 08                    	addl	$8, %eax
10000a0de: 89 02                       	movl	%eax, (%rdx)
10000a0e0: 48 89 4d 90                 	movq	%rcx, -112(%rbp)
10000a0e4: e9 1a 00 00 00              	jmp	26 <_check_percent+0x193>
10000a0e9: 48 8b 45 a0                 	movq	-96(%rbp), %rax
10000a0ed: 48 8b 48 08                 	movq	8(%rax), %rcx
10000a0f1: 48 89 ca                    	movq	%rcx, %rdx
10000a0f4: 48 81 c1 08 00 00 00        	addq	$8, %rcx
10000a0fb: 48 89 48 08                 	movq	%rcx, 8(%rax)
10000a0ff: 48 89 55 90                 	movq	%rdx, -112(%rbp)
10000a103: 48 8b 45 90                 	movq	-112(%rbp), %rax
10000a107: 48 8b 38                    	movq	(%rax), %rdi
10000a10a: 48 8b 4d e0                 	movq	-32(%rbp), %rcx
10000a10e: be 10 00 00 00              	movl	$16, %esi
10000a113: 48 8d 15 a2 2f 00 00        	leaq	12194(%rip), %rdx
10000a11a: e8 21 fd ff ff              	callq	-735 <_ft_pfptr>
10000a11f: e9 d2 02 00 00              	jmp	722 <_check_percent+0x486>
10000a124: 48 8b 45 f0                 	movq	-16(%rbp), %rax
10000a128: 48 63 4d dc                 	movslq	-36(%rbp), %rcx
10000a12c: 0f be 14 08                 	movsbl	(%rax,%rcx), %edx
10000a130: 83 fa 64                    	cmpl	$100, %edx
10000a133: 0f 84 15 00 00 00           	je	21 <_check_percent+0x1de>
10000a139: 48 8b 45 f0                 	movq	-16(%rbp), %rax
10000a13d: 48 63 4d dc                 	movslq	-36(%rbp), %rcx
10000a141: 0f be 14 08                 	movsbl	(%rax,%rcx), %edx
10000a145: 83 fa 69                    	cmpl	$105, %edx
10000a148: 0f 85 76 00 00 00           	jne	118 <_check_percent+0x254>
10000a14e: 48 8b 45 e8                 	movq	-24(%rbp), %rax
10000a152: 8b 08                       	movl	(%rax), %ecx
10000a154: 83 f9 28                    	cmpl	$40, %ecx
10000a157: 48 89 45 88                 	movq	%rax, -120(%rbp)
10000a15b: 89 4d 84                    	movl	%ecx, -124(%rbp)
10000a15e: 0f 87 1f 00 00 00           	ja	31 <_check_percent+0x213>
10000a164: 8b 45 84                    	movl	-124(%rbp), %eax
10000a167: 48 63 c8                    	movslq	%eax, %rcx
10000a16a: 48 8b 55 88                 	movq	-120(%rbp), %rdx
10000a16e: 48 03 4a 10                 	addq	16(%rdx), %rcx
10000a172: 83 c0 08                    	addl	$8, %eax
10000a175: 89 02                       	movl	%eax, (%rdx)
10000a177: 48 89 8d 78 ff ff ff        	movq	%rcx, -136(%rbp)
10000a17e: e9 1d 00 00 00              	jmp	29 <_check_percent+0x230>
10000a183: 48 8b 45 88                 	movq	-120(%rbp), %rax
10000a187: 48 8b 48 08                 	movq	8(%rax), %rcx
10000a18b: 48 89 ca                    	movq	%rcx, %rdx
10000a18e: 48 81 c1 08 00 00 00        	addq	$8, %rcx
10000a195: 48 89 48 08                 	movq	%rcx, 8(%rax)
10000a199: 48 89 95 78 ff ff ff        	movq	%rdx, -136(%rbp)
10000a1a0: 48 8b 85 78 ff ff ff        	movq	-136(%rbp), %rax
10000a1a7: 48 63 38                    	movslq	(%rax), %rdi
10000a1aa: 48 8b 4d e0                 	movq	-32(%rbp), %rcx
10000a1ae: be 0a 00 00 00              	movl	$10, %esi
10000a1b3: 48 8d 15 13 2f 00 00        	leaq	12051(%rip), %rdx
10000a1ba: e8 91 04 00 00              	callq	1169 <_ft_pfputnbr>
10000a1bf: e9 2d 02 00 00              	jmp	557 <_check_percent+0x481>
10000a1c4: 48 8b 45 f0                 	movq	-16(%rbp), %rax
10000a1c8: 48 63 4d dc                 	movslq	-36(%rbp), %rcx
10000a1cc: 0f be 14 08                 	movsbl	(%rax,%rcx), %edx
10000a1d0: 83 fa 75                    	cmpl	$117, %edx
10000a1d3: 0f 85 86 00 00 00           	jne	134 <_check_percent+0x2ef>
10000a1d9: 48 8b 45 e8                 	movq	-24(%rbp), %rax
10000a1dd: 8b 08                       	movl	(%rax), %ecx
10000a1df: 83 f9 28                    	cmpl	$40, %ecx
10000a1e2: 48 89 85 70 ff ff ff        	movq	%rax, -144(%rbp)
10000a1e9: 89 8d 6c ff ff ff           	movl	%ecx, -148(%rbp)
10000a1ef: 0f 87 25 00 00 00           	ja	37 <_check_percent+0x2aa>
10000a1f5: 8b 85 6c ff ff ff           	movl	-148(%rbp), %eax
10000a1fb: 48 63 c8                    	movslq	%eax, %rcx
10000a1fe: 48 8b 95 70 ff ff ff        	movq	-144(%rbp), %rdx
10000a205: 48 03 4a 10                 	addq	16(%rdx), %rcx
10000a209: 83 c0 08                    	addl	$8, %eax
10000a20c: 89 02                       	movl	%eax, (%rdx)
10000a20e: 48 89 8d 60 ff ff ff        	movq	%rcx, -160(%rbp)
10000a215: e9 20 00 00 00              	jmp	32 <_check_percent+0x2ca>
10000a21a: 48 8b 85 70 ff ff ff        	movq	-144(%rbp), %rax
10000a221: 48 8b 48 08                 	movq	8(%rax), %rcx
10000a225: 48 89 ca                    	movq	%rcx, %rdx
10000a228: 48 81 c1 08 00 00 00        	addq	$8, %rcx
10000a22f: 48 89 48 08                 	movq	%rcx, 8(%rax)
10000a233: 48 89 95 60 ff ff ff        	movq	%rdx, -160(%rbp)
10000a23a: 48 8b 85 60 ff ff ff        	movq	-160(%rbp), %rax
10000a241: 8b 08                       	movl	(%rax), %ecx
10000a243: 89 cf                       	movl	%ecx, %edi
10000a245: 48 8b 4d e0                 	movq	-32(%rbp), %rcx
10000a249: be 0a 00 00 00              	movl	$10, %esi
10000a24e: 48 8d 15 78 2e 00 00        	leaq	11896(%rip), %rdx
10000a255: e8 f6 03 00 00              	callq	1014 <_ft_pfputnbr>
10000a25a: e9 8d 01 00 00              	jmp	397 <_check_percent+0x47c>
10000a25f: 48 8b 45 f0                 	movq	-16(%rbp), %rax
10000a263: 48 63 4d dc                 	movslq	-36(%rbp), %rcx
10000a267: 0f be 14 08                 	movsbl	(%rax,%rcx), %edx
10000a26b: 83 fa 78                    	cmpl	$120, %edx
10000a26e: 0f 85 86 00 00 00           	jne	134 <_check_percent+0x38a>
10000a274: 48 8b 45 e8                 	movq	-24(%rbp), %rax
10000a278: 8b 08                       	movl	(%rax), %ecx
10000a27a: 83 f9 28                    	cmpl	$40, %ecx
10000a27d: 48 89 85 58 ff ff ff        	movq	%rax, -168(%rbp)
10000a284: 89 8d 54 ff ff ff           	movl	%ecx, -172(%rbp)
10000a28a: 0f 87 25 00 00 00           	ja	37 <_check_percent+0x345>
10000a290: 8b 85 54 ff ff ff           	movl	-172(%rbp), %eax
10000a296: 48 63 c8                    	movslq	%eax, %rcx
10000a299: 48 8b 95 58 ff ff ff        	movq	-168(%rbp), %rdx
10000a2a0: 48 03 4a 10                 	addq	16(%rdx), %rcx
10000a2a4: 83 c0 08                    	addl	$8, %eax
10000a2a7: 89 02                       	movl	%eax, (%rdx)
10000a2a9: 48 89 8d 48 ff ff ff        	movq	%rcx, -184(%rbp)
10000a2b0: e9 20 00 00 00              	jmp	32 <_check_percent+0x365>
10000a2b5: 48 8b 85 58 ff ff ff        	movq	-168(%rbp), %rax
10000a2bc: 48 8b 48 08                 	movq	8(%rax), %rcx
10000a2c0: 48 89 ca                    	movq	%rcx, %rdx
10000a2c3: 48 81 c1 08 00 00 00        	addq	$8, %rcx
10000a2ca: 48 89 48 08                 	movq	%rcx, 8(%rax)
10000a2ce: 48 89 95 48 ff ff ff        	movq	%rdx, -184(%rbp)
10000a2d5: 48 8b 85 48 ff ff ff        	movq	-184(%rbp), %rax
10000a2dc: 8b 08                       	movl	(%rax), %ecx
10000a2de: 89 cf                       	movl	%ecx, %edi
10000a2e0: 48 8b 4d e0                 	movq	-32(%rbp), %rcx
10000a2e4: be 10 00 00 00              	movl	$16, %esi
10000a2e9: 48 8d 15 cc 2d 00 00        	leaq	11724(%rip), %rdx
10000a2f0: e8 5b 03 00 00              	callq	859 <_ft_pfputnbr>
10000a2f5: e9 ed 00 00 00              	jmp	237 <_check_percent+0x477>
10000a2fa: 48 8b 45 f0                 	movq	-16(%rbp), %rax
10000a2fe: 48 63 4d dc                 	movslq	-36(%rbp), %rcx
10000a302: 0f be 14 08                 	movsbl	(%rax,%rcx), %edx
10000a306: 83 fa 58                    	cmpl	$88, %edx
10000a309: 0f 85 86 00 00 00           	jne	134 <_check_percent+0x425>
10000a30f: 48 8b 45 e8                 	movq	-24(%rbp), %rax
10000a313: 8b 08                       	movl	(%rax), %ecx
10000a315: 83 f9 28                    	cmpl	$40, %ecx
10000a318: 48 89 85 40 ff ff ff        	movq	%rax, -192(%rbp)
10000a31f: 89 8d 3c ff ff ff           	movl	%ecx, -196(%rbp)
10000a325: 0f 87 25 00 00 00           	ja	37 <_check_percent+0x3e0>
10000a32b: 8b 85 3c ff ff ff           	movl	-196(%rbp), %eax
10000a331: 48 63 c8                    	movslq	%eax, %rcx
10000a334: 48 8b 95 40 ff ff ff        	movq	-192(%rbp), %rdx
10000a33b: 48 03 4a 10                 	addq	16(%rdx), %rcx
10000a33f: 83 c0 08                    	addl	$8, %eax
10000a342: 89 02                       	movl	%eax, (%rdx)
10000a344: 48 89 8d 30 ff ff ff        	movq	%rcx, -208(%rbp)
10000a34b: e9 20 00 00 00              	jmp	32 <_check_percent+0x400>
10000a350: 48 8b 85 40 ff ff ff        	movq	-192(%rbp), %rax
10000a357: 48 8b 48 08                 	movq	8(%rax), %rcx
10000a35b: 48 89 ca                    	movq	%rcx, %rdx
10000a35e: 48 81 c1 08 00 00 00        	addq	$8, %rcx
10000a365: 48 89 48 08                 	movq	%rcx, 8(%rax)
10000a369: 48 89 95 30 ff ff ff        	movq	%rdx, -208(%rbp)
10000a370: 48 8b 85 30 ff ff ff        	movq	-208(%rbp), %rax
10000a377: 8b 08                       	movl	(%rax), %ecx
10000a379: 89 cf                       	movl	%ecx, %edi
10000a37b: 48 8b 4d e0                 	movq	-32(%rbp), %rcx
10000a37f: be 10 00 00 00              	movl	$16, %esi
10000a384: 48 8d 15 4d 2d 00 00        	leaq	11597(%rip), %rdx
10000a38b: e8 c0 02 00 00              	callq	704 <_ft_pfputnbr>
10000a390: e9 4d 00 00 00              	jmp	77 <_check_percent+0x472>
10000a395: 48 8b 45 f0                 	movq	-16(%rbp), %rax
10000a399: 48 63 4d dc                 	movslq	-36(%rbp), %rcx
10000a39d: 0f be 14 08                 	movsbl	(%rax,%rcx), %edx
10000a3a1: 83 fa 25                    	cmpl	$37, %edx
10000a3a4: 0f 85 27 00 00 00           	jne	39 <_check_percent+0x461>
10000a3aa: bf 01 00 00 00              	movl	$1, %edi
10000a3af: 48 8d 35 33 2d 00 00        	leaq	11571(%rip), %rsi
10000a3b6: ba 01 00 00 00              	movl	$1, %edx
10000a3bb: e8 64 05 00 00              	callq	1380 <dyld_stub_binder+0x10000a924>
10000a3c0: 48 8b 4d e0                 	movq	-32(%rbp), %rcx
10000a3c4: 48 63 11                    	movslq	(%rcx), %rdx
10000a3c7: 48 01 c2                    	addq	%rax, %rdx
10000a3ca: 89 11                       	movl	%edx, (%rcx)
10000a3cc: e9 0c 00 00 00              	jmp	12 <_check_percent+0x46d>
10000a3d1: c7 45 fc 00 00 00 00        	movl	$0, -4(%rbp)
10000a3d8: e9 2a 00 00 00              	jmp	42 <_check_percent+0x497>
10000a3dd: e9 00 00 00 00              	jmp	0 <_check_percent+0x472>
10000a3e2: e9 00 00 00 00              	jmp	0 <_check_percent+0x477>
10000a3e7: e9 00 00 00 00              	jmp	0 <_check_percent+0x47c>
10000a3ec: e9 00 00 00 00              	jmp	0 <_check_percent+0x481>
10000a3f1: e9 00 00 00 00              	jmp	0 <_check_percent+0x486>
10000a3f6: e9 00 00 00 00              	jmp	0 <_check_percent+0x48b>
10000a3fb: e9 00 00 00 00              	jmp	0 <_check_percent+0x490>
10000a400: c7 45 fc 01 00 00 00        	movl	$1, -4(%rbp)
10000a407: 8b 45 fc                    	movl	-4(%rbp), %eax
10000a40a: 48 81 c4 d0 00 00 00        	addq	$208, %rsp
10000a411: 5d                          	popq	%rbp
10000a412: c3                          	retq
10000a413: 66 2e 0f 1f 84 00 00 00 00 00       	nopw	%cs:(%rax,%rax)
10000a41d: 0f 1f 00                    	nopl	(%rax)

000000010000a420 _ft_printf:
10000a420: 55                          	pushq	%rbp
10000a421: 48 89 e5                    	movq	%rsp, %rbp
10000a424: 48 81 ec a0 01 00 00        	subq	$416, %rsp
10000a42b: 84 c0                       	testb	%al, %al
10000a42d: 0f 29 bd 10 ff ff ff        	movaps	%xmm7, -240(%rbp)
10000a434: 0f 29 b5 00 ff ff ff        	movaps	%xmm6, -256(%rbp)
10000a43b: 0f 29 ad f0 fe ff ff        	movaps	%xmm5, -272(%rbp)
10000a442: 0f 29 a5 e0 fe ff ff        	movaps	%xmm4, -288(%rbp)
10000a449: 0f 29 9d d0 fe ff ff        	movaps	%xmm3, -304(%rbp)
10000a450: 0f 29 95 c0 fe ff ff        	movaps	%xmm2, -320(%rbp)
10000a457: 0f 29 8d b0 fe ff ff        	movaps	%xmm1, -336(%rbp)
10000a45e: 0f 29 85 a0 fe ff ff        	movaps	%xmm0, -352(%rbp)
10000a465: 4c 89 8d 98 fe ff ff        	movq	%r9, -360(%rbp)
10000a46c: 4c 89 85 90 fe ff ff        	movq	%r8, -368(%rbp)
10000a473: 48 89 8d 88 fe ff ff        	movq	%rcx, -376(%rbp)
10000a47a: 48 89 95 80 fe ff ff        	movq	%rdx, -384(%rbp)
10000a481: 48 89 b5 78 fe ff ff        	movq	%rsi, -392(%rbp)
10000a488: 48 89 bd 70 fe ff ff        	movq	%rdi, -400(%rbp)
10000a48f: 0f 84 61 00 00 00           	je	97 <_ft_printf+0xd6>
10000a495: 0f 28 85 a0 fe ff ff        	movaps	-352(%rbp), %xmm0
10000a49c: 0f 29 85 50 ff ff ff        	movaps	%xmm0, -176(%rbp)
10000a4a3: 0f 28 8d b0 fe ff ff        	movaps	-336(%rbp), %xmm1
10000a4aa: 0f 29 8d 60 ff ff ff        	movaps	%xmm1, -160(%rbp)
10000a4b1: 0f 28 95 c0 fe ff ff        	movaps	-320(%rbp), %xmm2
10000a4b8: 0f 29 95 70 ff ff ff        	movaps	%xmm2, -144(%rbp)
10000a4bf: 0f 28 9d d0 fe ff ff        	movaps	-304(%rbp), %xmm3
10000a4c6: 0f 29 5d 80                 	movaps	%xmm3, -128(%rbp)
10000a4ca: 0f 28 a5 e0 fe ff ff        	movaps	-288(%rbp), %xmm4
10000a4d1: 0f 29 65 90                 	movaps	%xmm4, -112(%rbp)
10000a4d5: 0f 28 ad f0 fe ff ff        	movaps	-272(%rbp), %xmm5
10000a4dc: 0f 29 6d a0                 	movaps	%xmm5, -96(%rbp)
10000a4e0: 0f 28 b5 00 ff ff ff        	movaps	-256(%rbp), %xmm6
10000a4e7: 0f 29 75 b0                 	movaps	%xmm6, -80(%rbp)
10000a4eb: 0f 28 bd 10 ff ff ff        	movaps	-240(%rbp), %xmm7
10000a4f2: 0f 29 7d c0                 	movaps	%xmm7, -64(%rbp)
10000a4f6: 48 8b 85 98 fe ff ff        	movq	-360(%rbp), %rax
10000a4fd: 48 89 85 48 ff ff ff        	movq	%rax, -184(%rbp)
10000a504: 48 8b 8d 90 fe ff ff        	movq	-368(%rbp), %rcx
10000a50b: 48 89 8d 40 ff ff ff        	movq	%rcx, -192(%rbp)
10000a512: 48 8b 95 88 fe ff ff        	movq	-376(%rbp), %rdx
10000a519: 48 89 95 38 ff ff ff        	movq	%rdx, -200(%rbp)
10000a520: 48 8b b5 80 fe ff ff        	movq	-384(%rbp), %rsi
10000a527: 48 89 b5 30 ff ff ff        	movq	%rsi, -208(%rbp)
10000a52e: 48 8b bd 78 fe ff ff        	movq	-392(%rbp), %rdi
10000a535: 48 89 bd 28 ff ff ff        	movq	%rdi, -216(%rbp)
10000a53c: 4c 8d 45 e0                 	leaq	-32(%rbp), %r8
10000a540: 4c 8b 0d c9 9a 01 00        	movq	105161(%rip), %r9
10000a547: 4d 8b 09                    	movq	(%r9), %r9
10000a54a: 4c 89 4d f8                 	movq	%r9, -8(%rbp)
10000a54e: 4c 8b 8d 70 fe ff ff        	movq	-400(%rbp), %r9
10000a555: 4c 89 4d d8                 	movq	%r9, -40(%rbp)
10000a559: 4c 8d 95 20 ff ff ff        	leaq	-224(%rbp), %r10
10000a560: 4d 89 50 10                 	movq	%r10, 16(%r8)
10000a564: 4c 8d 55 10                 	leaq	16(%rbp), %r10
10000a568: 4d 89 50 08                 	movq	%r10, 8(%r8)
10000a56c: 41 c7 40 04 30 00 00 00     	movl	$48, 4(%r8)
10000a574: 41 c7 00 08 00 00 00        	movl	$8, (%r8)
10000a57b: c7 45 d4 00 00 00 00        	movl	$0, -44(%rbp)
10000a582: c7 45 d0 00 00 00 00        	movl	$0, -48(%rbp)
10000a589: 48 8b 45 d8                 	movq	-40(%rbp), %rax
10000a58d: 48 63 4d d4                 	movslq	-44(%rbp), %rcx
10000a591: 80 3c 08 00                 	cmpb	$0, (%rax,%rcx)
10000a595: 0f 84 6e 00 00 00           	je	110 <_ft_printf+0x1e9>
10000a59b: 48 8b 45 d8                 	movq	-40(%rbp), %rax
10000a59f: 48 63 4d d4                 	movslq	-44(%rbp), %rcx
10000a5a3: 0f be 14 08                 	movsbl	(%rax,%rcx), %edx
10000a5a7: 83 fa 25                    	cmpl	$37, %edx
10000a5aa: 0f 84 2c 00 00 00           	je	44 <_ft_printf+0x1bc>
10000a5b0: 48 8b 45 d8                 	movq	-40(%rbp), %rax
10000a5b4: 48 63 4d d4                 	movslq	-44(%rbp), %rcx
10000a5b8: 48 01 c8                    	addq	%rcx, %rax
10000a5bb: bf 01 00 00 00              	movl	$1, %edi
10000a5c0: 48 89 c6                    	movq	%rax, %rsi
10000a5c3: ba 01 00 00 00              	movl	$1, %edx
10000a5c8: e8 57 03 00 00              	callq	855 <dyld_stub_binder+0x10000a924>
10000a5cd: 48 63 4d d0                 	movslq	-48(%rbp), %rcx
10000a5d1: 48 01 c1                    	addq	%rax, %rcx
10000a5d4: 89 4d d0                    	movl	%ecx, -48(%rbp)
10000a5d7: e9 1f 00 00 00              	jmp	31 <_ft_printf+0x1db>
10000a5dc: 48 8d 75 e0                 	leaq	-32(%rbp), %rsi
10000a5e0: 48 8b 7d d8                 	movq	-40(%rbp), %rdi
10000a5e4: 8b 45 d4                    	movl	-44(%rbp), %eax
10000a5e7: 83 c0 01                    	addl	$1, %eax
10000a5ea: 48 8d 55 d0                 	leaq	-48(%rbp), %rdx
10000a5ee: 89 c1                       	movl	%eax, %ecx
10000a5f0: e8 7b f9 ff ff              	callq	-1669 <_check_percent>
10000a5f5: 03 45 d4                    	addl	-44(%rbp), %eax
10000a5f8: 89 45 d4                    	movl	%eax, -44(%rbp)
10000a5fb: 8b 45 d4                    	movl	-44(%rbp), %eax
10000a5fe: 83 c0 01                    	addl	$1, %eax
10000a601: 89 45 d4                    	movl	%eax, -44(%rbp)
10000a604: e9 80 ff ff ff              	jmp	-128 <_ft_printf+0x169>
10000a609: 48 8d 45 e0                 	leaq	-32(%rbp), %rax
10000a60d: 8b 4d d0                    	movl	-48(%rbp), %ecx
10000a610: 48 8b 15 f9 99 01 00        	movq	104953(%rip), %rdx
10000a617: 48 8b 12                    	movq	(%rdx), %rdx
10000a61a: 48 8b 75 f8                 	movq	-8(%rbp), %rsi
10000a61e: 48 39 f2                    	cmpq	%rsi, %rdx
10000a621: 89 8d 6c fe ff ff           	movl	%ecx, -404(%rbp)
10000a627: 0f 85 0f 00 00 00           	jne	15 <_ft_printf+0x21c>
10000a62d: 8b 85 6c fe ff ff           	movl	-404(%rbp), %eax
10000a633: 48 81 c4 a0 01 00 00        	addq	$416, %rsp
10000a63a: 5d                          	popq	%rbp
10000a63b: c3                          	retq
10000a63c: e8 5d 01 00 00              	callq	349 <dyld_stub_binder+0x10000a79e>
10000a641: 0f 0b                       	ud2
10000a643: 90                          	nop
10000a644: 90                          	nop
10000a645: 90                          	nop
10000a646: 90                          	nop
10000a647: 90                          	nop
10000a648: 90                          	nop
10000a649: 90                          	nop
10000a64a: 90                          	nop
10000a64b: 90                          	nop
10000a64c: 90                          	nop
10000a64d: 90                          	nop
10000a64e: 90                          	nop
10000a64f: 90                          	nop

000000010000a650 _ft_pfputnbr:
10000a650: 55                          	pushq	%rbp
10000a651: 48 89 e5                    	movq	%rsp, %rbp
10000a654: 48 83 ec 40                 	subq	$64, %rsp
10000a658: 48 89 7d f8                 	movq	%rdi, -8(%rbp)
10000a65c: 89 75 f4                    	movl	%esi, -12(%rbp)
10000a65f: 48 89 55 e8                 	movq	%rdx, -24(%rbp)
10000a663: 48 89 4d e0                 	movq	%rcx, -32(%rbp)
10000a667: 48 83 7d f8 00              	cmpq	$0, -8(%rbp)
10000a66c: 0f 8d 2e 00 00 00           	jge	46 <_ft_pfputnbr+0x50>
10000a672: 31 c0                       	xorl	%eax, %eax
10000a674: 89 c1                       	movl	%eax, %ecx
10000a676: 48 2b 4d f8                 	subq	-8(%rbp), %rcx
10000a67a: 48 89 4d f8                 	movq	%rcx, -8(%rbp)
10000a67e: bf 01 00 00 00              	movl	$1, %edi
10000a683: 48 8d 35 62 2a 00 00        	leaq	10850(%rip), %rsi
10000a68a: ba 01 00 00 00              	movl	$1, %edx
10000a68f: e8 90 02 00 00              	callq	656 <dyld_stub_binder+0x10000a924>
10000a694: 48 8b 4d e0                 	movq	-32(%rbp), %rcx
10000a698: 48 63 11                    	movslq	(%rcx), %rdx
10000a69b: 48 01 c2                    	addq	%rax, %rdx
10000a69e: 89 11                       	movl	%edx, (%rcx)
10000a6a0: 48 8b 45 f8                 	movq	-8(%rbp), %rax
10000a6a4: 48 63 4d f4                 	movslq	-12(%rbp), %rcx
10000a6a8: 48 39 c8                    	cmpq	%rcx, %rax
10000a6ab: 0f 8c 2b 00 00 00           	jl	43 <_ft_pfputnbr+0x8c>
10000a6b1: 48 8b 45 f8                 	movq	-8(%rbp), %rax
10000a6b5: 48 63 4d f4                 	movslq	-12(%rbp), %rcx
10000a6b9: 48 99                       	cqto
10000a6bb: 48 f7 f9                    	idivq	%rcx
10000a6be: 8b 75 f4                    	movl	-12(%rbp), %esi
10000a6c1: 48 8b 4d e8                 	movq	-24(%rbp), %rcx
10000a6c5: 48 8b 7d e0                 	movq	-32(%rbp), %rdi
10000a6c9: 48 89 7d d8                 	movq	%rdi, -40(%rbp)
10000a6cd: 48 89 c7                    	movq	%rax, %rdi
10000a6d0: 48 89 ca                    	movq	%rcx, %rdx
10000a6d3: 48 8b 4d d8                 	movq	-40(%rbp), %rcx
10000a6d7: e8 74 ff ff ff              	callq	-140 <_ft_pfputnbr>
10000a6dc: 48 8b 45 e8                 	movq	-24(%rbp), %rax
10000a6e0: 48 8b 4d f8                 	movq	-8(%rbp), %rcx
10000a6e4: 48 63 55 f4                 	movslq	-12(%rbp), %rdx
10000a6e8: 48 89 45 d0                 	movq	%rax, -48(%rbp)
10000a6ec: 48 89 c8                    	movq	%rcx, %rax
10000a6ef: 48 89 55 c8                 	movq	%rdx, -56(%rbp)
10000a6f3: 48 99                       	cqto
10000a6f5: 48 8b 4d c8                 	movq	-56(%rbp), %rcx
10000a6f9: 48 f7 f9                    	idivq	%rcx
10000a6fc: 48 8b 75 d0                 	movq	-48(%rbp), %rsi
10000a700: 48 01 d6                    	addq	%rdx, %rsi
10000a703: bf 01 00 00 00              	movl	$1, %edi
10000a708: ba 01 00 00 00              	movl	$1, %edx
10000a70d: e8 12 02 00 00              	callq	530 <dyld_stub_binder+0x10000a924>
10000a712: 48 8b 4d e0                 	movq	-32(%rbp), %rcx
10000a716: 48 63 11                    	movslq	(%rcx), %rdx
10000a719: 48 01 c2                    	addq	%rax, %rdx
10000a71c: 89 11                       	movl	%edx, (%rcx)
10000a71e: 48 83 c4 40                 	addq	$64, %rsp
10000a722: 5d                          	popq	%rbp
10000a723: c3                          	retq
10000a724: 90                          	nop
10000a725: 90                          	nop
10000a726: 90                          	nop
10000a727: 90                          	nop
10000a728: 90                          	nop
10000a729: 90                          	nop
10000a72a: 90                          	nop
10000a72b: 90                          	nop
10000a72c: 90                          	nop
10000a72d: 90                          	nop
10000a72e: 90                          	nop
10000a72f: 90                          	nop

000000010000a730 _ft_pfstrlen:
10000a730: 55                          	pushq	%rbp
10000a731: 48 89 e5                    	movq	%rsp, %rbp
10000a734: 48 89 7d f8                 	movq	%rdi, -8(%rbp)
10000a738: 48 c7 45 f0 00 00 00 00     	movq	$0, -16(%rbp)
10000a740: 48 8b 45 f8                 	movq	-8(%rbp), %rax
10000a744: 48 8b 4d f0                 	movq	-16(%rbp), %rcx
10000a748: 0f be 14 08                 	movsbl	(%rax,%rcx), %edx
10000a74c: 83 fa 00                    	cmpl	$0, %edx
10000a74f: 0f 84 13 00 00 00           	je	19 <_ft_pfstrlen+0x38>
10000a755: 48 8b 45 f0                 	movq	-16(%rbp), %rax
10000a759: 48 05 01 00 00 00           	addq	$1, %rax
10000a75f: 48 89 45 f0                 	movq	%rax, -16(%rbp)
10000a763: e9 d8 ff ff ff              	jmp	-40 <_ft_pfstrlen+0x10>
10000a768: 48 8b 45 f0                 	movq	-16(%rbp), %rax
10000a76c: 5d                          	popq	%rbp
10000a76d: c3                          	retq

Disassembly of section __TEXT,__stubs:

000000010000a76e __stubs:
10000a76e: ff 25 8c d8 01 00           	jmpq	*120972(%rip)
10000a774: ff 25 8e d8 01 00           	jmpq	*120974(%rip)
10000a77a: ff 25 90 d8 01 00           	jmpq	*120976(%rip)
10000a780: ff 25 92 d8 01 00           	jmpq	*120978(%rip)
10000a786: ff 25 94 d8 01 00           	jmpq	*120980(%rip)
10000a78c: ff 25 96 d8 01 00           	jmpq	*120982(%rip)
10000a792: ff 25 98 d8 01 00           	jmpq	*120984(%rip)
10000a798: ff 25 9a d8 01 00           	jmpq	*120986(%rip)
10000a79e: ff 25 9c d8 01 00           	jmpq	*120988(%rip)
10000a7a4: ff 25 9e d8 01 00           	jmpq	*120990(%rip)
10000a7aa: ff 25 a0 d8 01 00           	jmpq	*120992(%rip)
10000a7b0: ff 25 a2 d8 01 00           	jmpq	*120994(%rip)
10000a7b6: ff 25 a4 d8 01 00           	jmpq	*120996(%rip)
10000a7bc: ff 25 a6 d8 01 00           	jmpq	*120998(%rip)
10000a7c2: ff 25 a8 d8 01 00           	jmpq	*121000(%rip)
10000a7c8: ff 25 aa d8 01 00           	jmpq	*121002(%rip)
10000a7ce: ff 25 ac d8 01 00           	jmpq	*121004(%rip)
10000a7d4: ff 25 ae d8 01 00           	jmpq	*121006(%rip)
10000a7da: ff 25 b0 d8 01 00           	jmpq	*121008(%rip)
10000a7e0: ff 25 b2 d8 01 00           	jmpq	*121010(%rip)
10000a7e6: ff 25 b4 d8 01 00           	jmpq	*121012(%rip)
10000a7ec: ff 25 b6 d8 01 00           	jmpq	*121014(%rip)
10000a7f2: ff 25 b8 d8 01 00           	jmpq	*121016(%rip)
10000a7f8: ff 25 ba d8 01 00           	jmpq	*121018(%rip)
10000a7fe: ff 25 bc d8 01 00           	jmpq	*121020(%rip)
10000a804: ff 25 be d8 01 00           	jmpq	*121022(%rip)
10000a80a: ff 25 c0 d8 01 00           	jmpq	*121024(%rip)
10000a810: ff 25 c2 d8 01 00           	jmpq	*121026(%rip)
10000a816: ff 25 c4 d8 01 00           	jmpq	*121028(%rip)
10000a81c: ff 25 c6 d8 01 00           	jmpq	*121030(%rip)
10000a822: ff 25 c8 d8 01 00           	jmpq	*121032(%rip)
10000a828: ff 25 ca d8 01 00           	jmpq	*121034(%rip)
10000a82e: ff 25 cc d8 01 00           	jmpq	*121036(%rip)
10000a834: ff 25 ce d8 01 00           	jmpq	*121038(%rip)
10000a83a: ff 25 d0 d8 01 00           	jmpq	*121040(%rip)
10000a840: ff 25 d2 d8 01 00           	jmpq	*121042(%rip)
10000a846: ff 25 d4 d8 01 00           	jmpq	*121044(%rip)
10000a84c: ff 25 d6 d8 01 00           	jmpq	*121046(%rip)
10000a852: ff 25 d8 d8 01 00           	jmpq	*121048(%rip)
10000a858: ff 25 da d8 01 00           	jmpq	*121050(%rip)
10000a85e: ff 25 dc d8 01 00           	jmpq	*121052(%rip)
10000a864: ff 25 de d8 01 00           	jmpq	*121054(%rip)
10000a86a: ff 25 e0 d8 01 00           	jmpq	*121056(%rip)
10000a870: ff 25 e2 d8 01 00           	jmpq	*121058(%rip)
10000a876: ff 25 e4 d8 01 00           	jmpq	*121060(%rip)
10000a87c: ff 25 e6 d8 01 00           	jmpq	*121062(%rip)
10000a882: ff 25 e8 d8 01 00           	jmpq	*121064(%rip)
10000a888: ff 25 ea d8 01 00           	jmpq	*121066(%rip)
10000a88e: ff 25 ec d8 01 00           	jmpq	*121068(%rip)
10000a894: ff 25 ee d8 01 00           	jmpq	*121070(%rip)
10000a89a: ff 25 f0 d8 01 00           	jmpq	*121072(%rip)
10000a8a0: ff 25 f2 d8 01 00           	jmpq	*121074(%rip)
10000a8a6: ff 25 f4 d8 01 00           	jmpq	*121076(%rip)
10000a8ac: ff 25 f6 d8 01 00           	jmpq	*121078(%rip)
10000a8b2: ff 25 f8 d8 01 00           	jmpq	*121080(%rip)
10000a8b8: ff 25 fa d8 01 00           	jmpq	*121082(%rip)
10000a8be: ff 25 fc d8 01 00           	jmpq	*121084(%rip)
10000a8c4: ff 25 fe d8 01 00           	jmpq	*121086(%rip)
10000a8ca: ff 25 00 d9 01 00           	jmpq	*121088(%rip)
10000a8d0: ff 25 02 d9 01 00           	jmpq	*121090(%rip)
10000a8d6: ff 25 04 d9 01 00           	jmpq	*121092(%rip)
10000a8dc: ff 25 06 d9 01 00           	jmpq	*121094(%rip)
10000a8e2: ff 25 08 d9 01 00           	jmpq	*121096(%rip)
10000a8e8: ff 25 0a d9 01 00           	jmpq	*121098(%rip)
10000a8ee: ff 25 0c d9 01 00           	jmpq	*121100(%rip)
10000a8f4: ff 25 0e d9 01 00           	jmpq	*121102(%rip)
10000a8fa: ff 25 10 d9 01 00           	jmpq	*121104(%rip)
10000a900: ff 25 12 d9 01 00           	jmpq	*121106(%rip)
10000a906: ff 25 14 d9 01 00           	jmpq	*121108(%rip)
10000a90c: ff 25 16 d9 01 00           	jmpq	*121110(%rip)
10000a912: ff 25 18 d9 01 00           	jmpq	*121112(%rip)
10000a918: ff 25 1a d9 01 00           	jmpq	*121114(%rip)
10000a91e: ff 25 1c d9 01 00           	jmpq	*121116(%rip)
10000a924: ff 25 1e d9 01 00           	jmpq	*121118(%rip)

Disassembly of section __TEXT,__stub_helper:

000000010000a92c __stub_helper:
10000a92c: 4c 8d 1d ed e2 01 00        	leaq	123629(%rip), %r11
10000a933: 41 53                       	pushq	%r11
10000a935: ff 25 05 97 01 00           	jmpq	*104197(%rip)
10000a93b: 90                          	nop
10000a93c: 68 37 01 00 00              	pushq	$311
10000a941: e9 e6 ff ff ff              	jmp	-26 <__stub_helper>
10000a946: 68 4e 01 00 00              	pushq	$334
10000a94b: e9 dc ff ff ff              	jmp	-36 <__stub_helper>
10000a950: 68 65 01 00 00              	pushq	$357
10000a955: e9 d2 ff ff ff              	jmp	-46 <__stub_helper>
10000a95a: 68 7a 01 00 00              	pushq	$378
10000a95f: e9 c8 ff ff ff              	jmp	-56 <__stub_helper>
10000a964: 68 90 01 00 00              	pushq	$400
10000a969: e9 be ff ff ff              	jmp	-66 <__stub_helper>
10000a96e: 68 a8 01 00 00              	pushq	$424
10000a973: e9 b4 ff ff ff              	jmp	-76 <__stub_helper>
10000a978: 68 bc 01 00 00              	pushq	$444
10000a97d: e9 aa ff ff ff              	jmp	-86 <__stub_helper>
10000a982: 68 d1 01 00 00              	pushq	$465
10000a987: e9 a0 ff ff ff              	jmp	-96 <__stub_helper>
10000a98c: 68 e1 01 00 00              	pushq	$481
10000a991: e9 96 ff ff ff              	jmp	-106 <__stub_helper>
10000a996: 68 f6 01 00 00              	pushq	$502
10000a99b: e9 8c ff ff ff              	jmp	-116 <__stub_helper>
10000a9a0: 68 0e 02 00 00              	pushq	$526
10000a9a5: e9 82 ff ff ff              	jmp	-126 <__stub_helper>
10000a9aa: 68 26 02 00 00              	pushq	$550
10000a9af: e9 78 ff ff ff              	jmp	-136 <__stub_helper>
10000a9b4: 68 3d 02 00 00              	pushq	$573
10000a9b9: e9 6e ff ff ff              	jmp	-146 <__stub_helper>
10000a9be: 68 55 02 00 00              	pushq	$597
10000a9c3: e9 64 ff ff ff              	jmp	-156 <__stub_helper>
10000a9c8: 68 6d 02 00 00              	pushq	$621
10000a9cd: e9 5a ff ff ff              	jmp	-166 <__stub_helper>
10000a9d2: 68 84 02 00 00              	pushq	$644
10000a9d7: e9 50 ff ff ff              	jmp	-176 <__stub_helper>
10000a9dc: 68 9d 02 00 00              	pushq	$669
10000a9e1: e9 46 ff ff ff              	jmp	-186 <__stub_helper>
10000a9e6: 68 af 02 00 00              	pushq	$687
10000a9eb: e9 3c ff ff ff              	jmp	-196 <__stub_helper>
10000a9f0: 68 d2 02 00 00              	pushq	$722
10000a9f5: e9 32 ff ff ff              	jmp	-206 <__stub_helper>
10000a9fa: 68 e7 02 00 00              	pushq	$743
10000a9ff: e9 28 ff ff ff              	jmp	-216 <__stub_helper>
10000aa04: 68 f8 02 00 00              	pushq	$760
10000aa09: e9 1e ff ff ff              	jmp	-226 <__stub_helper>
10000aa0e: 68 1a 03 00 00              	pushq	$794
10000aa13: e9 14 ff ff ff              	jmp	-236 <__stub_helper>
10000aa18: 68 2a 03 00 00              	pushq	$810
10000aa1d: e9 0a ff ff ff              	jmp	-246 <__stub_helper>
10000aa22: 68 3f 03 00 00              	pushq	$831
10000aa27: e9 00 ff ff ff              	jmp	-256 <__stub_helper>
10000aa2c: 68 55 03 00 00              	pushq	$853
10000aa31: e9 f6 fe ff ff              	jmp	-266 <__stub_helper>
10000aa36: 68 71 03 00 00              	pushq	$881
10000aa3b: e9 ec fe ff ff              	jmp	-276 <__stub_helper>
10000aa40: 68 8d 03 00 00              	pushq	$909
10000aa45: e9 e2 fe ff ff              	jmp	-286 <__stub_helper>
10000aa4a: 68 a4 03 00 00              	pushq	$932
10000aa4f: e9 d8 fe ff ff              	jmp	-296 <__stub_helper>
10000aa54: 68 bf 03 00 00              	pushq	$959
10000aa59: e9 ce fe ff ff              	jmp	-306 <__stub_helper>
10000aa5e: 68 d5 03 00 00              	pushq	$981
10000aa63: e9 c4 fe ff ff              	jmp	-316 <__stub_helper>
10000aa68: 68 f2 03 00 00              	pushq	$1010
10000aa6d: e9 ba fe ff ff              	jmp	-326 <__stub_helper>
10000aa72: 68 08 04 00 00              	pushq	$1032
10000aa77: e9 b0 fe ff ff              	jmp	-336 <__stub_helper>
10000aa7c: 68 1f 04 00 00              	pushq	$1055
10000aa81: e9 a6 fe ff ff              	jmp	-346 <__stub_helper>
10000aa86: 68 34 04 00 00              	pushq	$1076
10000aa8b: e9 9c fe ff ff              	jmp	-356 <__stub_helper>
10000aa90: 68 4c 04 00 00              	pushq	$1100
10000aa95: e9 92 fe ff ff              	jmp	-366 <__stub_helper>
10000aa9a: 68 64 04 00 00              	pushq	$1124
10000aa9f: e9 88 fe ff ff              	jmp	-376 <__stub_helper>
10000aaa4: 68 78 04 00 00              	pushq	$1144
10000aaa9: e9 7e fe ff ff              	jmp	-386 <__stub_helper>
10000aaae: 68 8c 04 00 00              	pushq	$1164
10000aab3: e9 74 fe ff ff              	jmp	-396 <__stub_helper>
10000aab8: 68 a1 04 00 00              	pushq	$1185
10000aabd: e9 6a fe ff ff              	jmp	-406 <__stub_helper>
10000aac2: 68 b6 04 00 00              	pushq	$1206
10000aac7: e9 60 fe ff ff              	jmp	-416 <__stub_helper>
10000aacc: 68 c4 00 00 00              	pushq	$196
10000aad1: e9 56 fe ff ff              	jmp	-426 <__stub_helper>
10000aad6: 68 d3 00 00 00              	pushq	$211
10000aadb: e9 4c fe ff ff              	jmp	-436 <__stub_helper>
10000aae0: 68 eb 00 00 00              	pushq	$235
10000aae5: e9 42 fe ff ff              	jmp	-446 <__stub_helper>
10000aaea: 68 f7 00 00 00              	pushq	$247
10000aaef: e9 38 fe ff ff              	jmp	-456 <__stub_helper>
10000aaf4: 68 04 01 00 00              	pushq	$260
10000aaf9: e9 2e fe ff ff              	jmp	-466 <__stub_helper>
10000aafe: 68 10 01 00 00              	pushq	$272
10000ab03: e9 24 fe ff ff              	jmp	-476 <__stub_helper>
10000ab08: 68 1d 01 00 00              	pushq	$285
10000ab0d: e9 1a fe ff ff              	jmp	-486 <__stub_helper>
10000ab12: 68 29 01 00 00              	pushq	$297
10000ab17: e9 10 fe ff ff              	jmp	-496 <__stub_helper>
10000ab1c: 68 d4 04 00 00              	pushq	$1236
10000ab21: e9 06 fe ff ff              	jmp	-506 <__stub_helper>
10000ab26: 68 e2 04 00 00              	pushq	$1250
10000ab2b: e9 fc fd ff ff              	jmp	-516 <__stub_helper>
10000ab30: 68 f1 04 00 00              	pushq	$1265
10000ab35: e9 f2 fd ff ff              	jmp	-526 <__stub_helper>
10000ab3a: 68 00 05 00 00              	pushq	$1280
10000ab3f: e9 e8 fd ff ff              	jmp	-536 <__stub_helper>
10000ab44: 68 0d 05 00 00              	pushq	$1293
10000ab49: e9 de fd ff ff              	jmp	-546 <__stub_helper>
10000ab4e: 68 4a 05 00 00              	pushq	$1354
10000ab53: e9 d4 fd ff ff              	jmp	-556 <__stub_helper>
10000ab58: 68 57 05 00 00              	pushq	$1367
10000ab5d: e9 ca fd ff ff              	jmp	-566 <__stub_helper>
10000ab62: 68 66 05 00 00              	pushq	$1382
10000ab67: e9 c0 fd ff ff              	jmp	-576 <__stub_helper>
10000ab6c: 68 73 05 00 00              	pushq	$1395
10000ab71: e9 b6 fd ff ff              	jmp	-586 <__stub_helper>
10000ab76: 68 84 05 00 00              	pushq	$1412
10000ab7b: e9 ac fd ff ff              	jmp	-596 <__stub_helper>
10000ab80: 68 97 05 00 00              	pushq	$1431
10000ab85: e9 a2 fd ff ff              	jmp	-606 <__stub_helper>
10000ab8a: 68 a6 05 00 00              	pushq	$1446
10000ab8f: e9 98 fd ff ff              	jmp	-616 <__stub_helper>
10000ab94: 68 b5 05 00 00              	pushq	$1461
10000ab99: e9 8e fd ff ff              	jmp	-626 <__stub_helper>
10000ab9e: 68 c5 05 00 00              	pushq	$1477
10000aba3: e9 84 fd ff ff              	jmp	-636 <__stub_helper>
10000aba8: 68 d4 05 00 00              	pushq	$1492
10000abad: e9 7a fd ff ff              	jmp	-646 <__stub_helper>
10000abb2: 68 e3 05 00 00              	pushq	$1507
10000abb7: e9 70 fd ff ff              	jmp	-656 <__stub_helper>
10000abbc: 68 f2 05 00 00              	pushq	$1522
10000abc1: e9 66 fd ff ff              	jmp	-666 <__stub_helper>
10000abc6: 68 a8 00 00 00              	pushq	$168
10000abcb: e9 5c fd ff ff              	jmp	-676 <__stub_helper>
10000abd0: 68 00 00 00 00              	pushq	$0
10000abd5: e9 52 fd ff ff              	jmp	-686 <__stub_helper>
10000abda: 68 1c 00 00 00              	pushq	$28
10000abdf: e9 48 fd ff ff              	jmp	-696 <__stub_helper>
10000abe4: 68 35 00 00 00              	pushq	$53
10000abe9: e9 3e fd ff ff              	jmp	-706 <__stub_helper>
10000abee: 68 4d 00 00 00              	pushq	$77
10000abf3: e9 34 fd ff ff              	jmp	-716 <__stub_helper>
10000abf8: 68 6c 00 00 00              	pushq	$108
10000abfd: e9 2a fd ff ff              	jmp	-726 <__stub_helper>
10000ac02: 68 88 00 00 00              	pushq	$136
10000ac07: e9 20 fd ff ff              	jmp	-736 <__stub_helper>
10000ac0c: 68 1c 05 00 00              	pushq	$1308
10000ac11: e9 16 fd ff ff              	jmp	-746 <__stub_helper>
10000ac16: 68 2f 05 00 00              	pushq	$1327
10000ac1b: e9 0c fd ff ff              	jmp	-756 <__stub_helper>
